(dp0
(I194
I295
tp1
F-0.1
s(I158
I193
tp2
F0.1867133083736896
s(I73
I193
tp3
F-0.3477576893504407
s(I201
I303
tp4
F-0.1
s(I183
I203
tp5
F-0.242135217052103
s(I98
I203
tp6
F-0.8114503949849505
s(I26
I201
tp7
F0.5777147021044444
s(I192
I241
tp8
F-0.1
s(I193
I229
tp9
F0.0
s(I122
I197
tp10
F-0.08492133029553423
s(I194
I342
tp11
F0.0
s(I195
I348
tp12
F-0.1
s(I51
I195
tp13
F-0.5084240686556305
s(I198
I374
tp14
F0.0
s(I199
I380
tp15
F0.0
s(I202
I310
tp16
F0.0
s(I76
I201
tp17
F-0.14062257999998984
s(I4
I203
tp18
F0.6477440232782535
s(I5
I195
tp19
F0.09215176359153388
s(I153
I202
tp20
F0.023464664604925807
s(I100
I199
tp21
F0.47004581755194036
s(I192
I352
tp22
F0.0
s(I202
I388
tp23
F-0.1
s(I178
I194
tp24
F-0.03216648341266607
s(I196
I229
tp25
F0.0
s(I125
I201
tp26
F0.6711006594513745
s(I192
I340
tp27
F0.0
s(I201
I246
tp28
F-0.1
s(I192
I212
tp29
F-0.1
s(I203
I214
tp30
F0.0
s(I203
I285
tp31
F-0.1
s(I131
I200
tp32
F0.10130764092456598
s(I78
I193
tp33
F0.06689943923605532
s(I200
I239
tp34
F-0.1
s(I156
I192
tp35
F-0.057560324604581624
s(I103
I203
tp36
F-0.32439796902695256
s(I197
I311
tp37
F0.0
s(I200
I335
tp38
F-0.1
s(I201
I327
tp39
F-0.1
s(I19
I200
tp40
F-0.6753385768875351
s(I202
I255
tp41
F0.0
s(I134
I198
tp42
F-0.09915615722782033
s(I194
I318
tp43
F-0.1
s(I158
I200
tp44
F-0.20344325899948576
s(I73
I202
tp45
F-0.8301517695071465
s(I192
I393
tp46
F0.0
s(I183
I192
tp47
F0.2945159948623691
s(I98
I194
tp48
F-2.0202053071874477
s(I27
I194
tp49
F0.6191112164711178
s(I200
I308
tp50
F0.0
s(I193
I254
tp51
F0.0
s(I194
I228
tp52
F-0.1
s(I194
I337
tp53
F-0.1
s(I195
I325
tp54
F-0.1
s(I51
I200
tp55
F-0.7533040490638158
s(I198
I361
tp56
F-0.1
s(I199
I373
tp57
F-0.1
s(I198
I285
tp58
F-0.1
s(I202
I305
tp59
F-0.1
s(I76
I192
tp60
F0.012819233338740898
s(I149
I193
tp61
F-0.8103425559527234
s(I6
I202
tp62
F-0.1661539736532529
s(I194
I237
tp63
F-0.1
s(I192
I359
tp64
F-0.1
s(I193
I367
tp65
F-0.1
s(I196
I279
tp66
F0.0
s(I196
I236
tp67
F0.0
s(I125
I194
tp68
F0.29287373507842723
s(I198
I248
tp69
F-0.1
s(I199
I266
tp70
F0.0
s(I54
I198
tp71
F-0.3589765831927268
s(I202
I247
tp72
F0.0
s(I203
I207
tp73
F-1.5424787185363147
s(I203
I274
tp74
F0.0
s(I132
I193
tp75
F-0.1841428120976819
s(I78
I200
tp76
F-0.5391705812592468
s(I193
I280
tp77
F-0.1
s(I157
I199
tp78
F-0.3503967388533999
s(I103
I192
tp79
F-0.07921584133329955
s(I197
I304
tp80
F0.0
s(I16
I196
tp81
F-0.15448574573689464
s(I17
I202
tp82
F-0.3209844854631757
s(I181
I193
tp83
F-0.5437663204511335
s(I201
I328
tp84
F0.0
s(I112
I200
tp85
F-0.2998449025570646
s(I20
I193
tp86
F3.8276599529135003
s(I135
I197
tp87
F-0.4261209604050284
s(I193
I393
tp88
F0.0
s(I194
I313
tp89
F0.0
s(I159
I195
tp90
F-0.3743760174498261
s(I201
I242
tp91
F0.0
s(I23
I197
tp92
F-3.121020475232931
s(I194
I225
tp93
F0.0
s(I192
I207
tp94
F-2.144614202354752
s(I193
I247
tp95
F0.0
s(I194
I255
tp96
F0.0
s(I195
I247
tp97
F0.0
s(I195
I330
tp98
F0.0
s(I52
I193
tp99
F-0.19165389327997057
s(I198
I352
tp100
F-0.1
s(I199
I370
tp101
F0.0
s(I146
I199
tp102
F-1.5924646692103817
s(I198
I331
tp103
F-0.1
s(I77
I199
tp104
F-1.1001244115816702
s(I149
I202
tp105
F-0.4252656355480727
s(I150
I200
tp106
F0.26543777273857044
s(I101
I193
tp107
F-0.6187040328994513
s(I193
I352
tp108
F-0.1
s(I174
I194
tp109
F-1.394470856557295
s(I30
I199
tp110
F0.6010491294035303
s(I196
I286
tp111
F-0.1
s(I196
I235
tp112
F0.0
s(I197
I227
tp113
F0.0
s(I198
I243
tp114
F-0.1
s(I199
I259
tp115
F-0.1
s(I201
I224
tp116
F-0.1
s(I55
I197
tp117
F-0.03406863943502512
s(I203
I267
tp118
F0.0
s(I132
I200
tp119
F0.3670816140587497
s(I79
I195
tp120
F-0.044085191037103226
s(I201
I316
tp121
F-0.1
s(I193
I273
tp122
F0.0
s(I157
I192
tp123
F-0.01860628984198829
s(I197
I313
tp124
F0.0
s(I17
I195
tp125
F-1.4993019668573853
s(I181
I202
tp126
F0.1377055877521834
s(I182
I200
tp127
F-1.0243001765798896
s(I20
I200
tp128
F-2.542215000336516
s(I21
I198
tp129
F-0.9499191321040628
s(I41
I197
tp130
F-1.2416641327626412
s(I200
I319
tp131
F-0.1
s(I197
I329
tp132
F0.0
s(I200
I219
tp133
F-0.1
s(I135
I194
tp134
F0.0274628215089762
s(I66
I199
tp135
F-1.212038408942506
s(I194
I304
tp136
F-0.1
s(I159
I200
tp137
F0.7491228736211395
s(I144
I202
tp138
F-0.08586310814824848
s(I147
I199
tp139
F0.16330739848354975
s(I168
I192
tp140
F0.2579643875558484
s(I23
I194
tp141
F0.37409824790596496
s(I193
I385
tp142
F-0.1
s(I201
I389
tp143
F-0.1
s(I194
I246
tp144
F0.0
s(I123
I196
tp145
F-0.12220213662603248
s(I32
I202
tp146
F0.0549560500533768
s(I52
I200
tp147
F-0.19220288365994231
s(I198
I347
tp148
F-0.1
s(I199
I363
tp149
F0.0
s(I201
I382
tp150
F-0.1
s(I202
I291
tp151
F0.0
s(I77
I192
tp152
F0.138248539021449
s(I150
I195
tp153
F-0.18018498110620934
s(I6
I196
tp154
F-0.13785089946564713
s(I171
I202
tp155
F-0.5571141367540462
s(I199
I269
tp156
F-0.1
s(I101
I202
tp157
F0.07894957660679519
s(I102
I200
tp158
F-0.3754299160295445
s(I174
I197
tp159
F-1.7805797361798705
s(I201
I248
tp160
F0.0
s(I31
I196
tp161
F-0.14397255112320173
s(I196
I210
tp162
F-0.1
s(I197
I236
tp163
F-0.1
s(I126
I194
tp164
F-0.10934446291043304
s(I199
I248
tp165
F0.0
s(I201
I233
tp166
F0.0
s(I55
I194
tp167
F-0.3724825989249358
s(I202
I204
tp168
F-1.7002157999046046
s(I203
I256
tp169
F0.0
s(I196
I373
tp170
F-0.1
s(I79
I200
tp171
F-0.3350666847892044
s(I64
I202
tp172
F-0.3022451009638552
s(I88
I192
tp173
F-0.03519012044610867
s(I197
I290
tp174
F0.0
s(I17
I196
tp175
F-0.1715768348908433
s(I18
I202
tp176
F1.0553152451849956
s(I182
I195
tp177
F1.5645795296134242
s(I112
I198
tp178
F-0.3990224226991603
s(I113
I200
tp179
F-0.5936646031832596
s(I42
I196
tp180
F0.03627637998901493
s(I199
I232
tp181
F-0.1
s(I194
I267
tp182
F-0.1
s(I192
I226
tp183
F0.0
s(I144
I193
tp184
F1.1114577786974833
s(I91
I202
tp185
F0.49471844037327684
s(I148
I198
tp186
F-0.3738484780802635
s(I168
I199
tp187
F0.7557791763475762
s(I203
I237
tp188
F-0.1
s(I45
I202
tp189
F0.025717518739474116
s(I194
I241
tp190
F0.0
s(I195
I229
tp191
F-0.1
s(I32
I193
tp192
F0.979704517314733
s(I203
I304
tp193
F-0.1
s(I198
I338
tp194
F0.0
s(I199
I352
tp195
F-0.1
s(I195
I367
tp196
F0.0
s(I193
I263
tp197
F-0.1
s(I151
I200
tp198
F-0.13380404279423816
s(I171
I195
tp199
F-2.5739138218974396
s(I192
I332
tp200
F0.0
s(I102
I195
tp201
F0.40380366971329945
s(I175
I198
tp202
F0.14314740918811425
s(I196
I268
tp203
F-0.1
s(I196
I217
tp204
F0.0
s(I197
I213
tp205
F0.0
s(I126
I197
tp206
F-0.08542165708801619
s(I199
I241
tp207
F0.0
s(I202
I224
tp208
F0.0
s(I203
I242
tp209
F0.0
s(I203
I313
tp210
F0.0
s(I64
I193
tp211
F-0.18931843324428407
s(I137
I192
tp212
F0.12969046937034936
s(I88
I199
tp213
F-0.2273383960656259
s(I195
I255
tp214
F-0.1
s(I162
I200
tp215
F0.1669620421835735
s(I18
I197
tp216
F0.5953106052782744
s(I201
I355
tp217
F0.0
s(I113
I193
tp218
F0.17694974440398978
s(I21
I200
tp219
F0.3091605819848419
s(I199
I272
tp220
F0.0
s(I202
I263
tp221
F0.0
s(I46
I192
tp222
F0.1520361709555466
s(I194
I258
tp223
F-0.1
s(I199
I287
tp224
F0.0
s(I192
I316
tp225
F-0.1
s(I91
I195
tp226
F-0.251823106441846
s(I169
I192
tp227
F0.07139374378236825
s(I8
I194
tp228
F-2.3243885550621366
s(I45
I195
tp229
F1.5450492167809864
s(I193
I218
tp230
F0.0
s(I197
I274
tp231
F0.0
s(I195
I234
tp232
F0.0
s(I195
I289
tp233
F0.0
s(I198
I341
tp234
F0.0
s(I199
I345
tp235
F0.0
s(I57
I192
tp236
F-0.146688875790961
s(I193
I236
tp237
F-0.1
s(I193
I372
tp238
F-0.1
s(I151
I193
tp239
F-0.2046599375695877
s(I172
I202
tp240
F-0.859570169121508
s(I192
I323
tp241
F0.0
s(I193
I331
tp242
F0.0
s(I31
I202
tp243
F0.15912460647853807
s(I197
I222
tp244
F0.0
s(I198
I228
tp245
F-0.1
s(I127
I198
tp246
F-0.49944373406087567
s(I202
I235
tp247
F0.0
s(I40
I194
tp248
F-0.2027625195727715
s(I203
I318
tp249
F-0.1
s(I200
I367
tp250
F-0.1
s(I199
I321
tp251
F-0.1
s(I137
I201
tp252
F0.23622035190315532
s(I89
I192
tp253
F0.12019850099329389
s(I162
I195
tp254
F0.10901175659747234
s(I201
I356
tp255
F-0.1
s(I203
I380
tp256
F0.0
s(I114
I200
tp257
F0.24016964204137237
s(I22
I193
tp258
F0.34368142794396656
s(I187
I201
tp259
F0.032484965542617344
s(I46
I203
tp260
F0.36694864691981804
s(I67
I194
tp261
F0.041027247743823776
s(I198
I317
tp262
F0.0
s(I145
I199
tp263
F0.1755568530188552
s(I92
I202
tp264
F1.0860201716048943
s(I169
I201
tp265
F0.2819199350584144
s(I116
I192
tp266
F0.03511381108969177
s(I8
I201
tp267
F-0.48182061994364767
s(I199
I284
tp268
F0.0
s(I192
I299
tp269
F-0.1
s(I193
I211
tp270
F-0.1
s(I195
I211
tp271
F0.0
s(I195
I294
tp272
F-0.1
s(I33
I199
tp273
F0.1736274361714285
s(I198
I332
tp274
F-0.1
s(I199
I342
tp275
F0.0
s(I57
I201
tp276
F-0.5123516541985463
s(I196
I262
tp277
F0.0
s(I200
I290
tp278
F-0.1
s(I172
I193
tp279
F-0.4422590596307721
s(I192
I346
tp280
F0.0
s(I193
I332
tp281
F0.0
s(I11
I197
tp282
F-1.6066362654049007
s(I194
I283
tp283
F0.0
s(I196
I207
tp284
F0.04788009199331697
s(I198
I223
tp285
F-0.1
s(I199
I231
tp286
F-0.1
s(I184
I196
tp287
F-0.20239030440295142
s(I40
I201
tp288
F-0.13854059235565744
s(I198
I235
tp289
F-0.1
s(I201
I260
tp290
F-0.1
s(I65
I199
tp291
F0.19973019620325255
s(I138
I192
tp292
F0.03492274591870925
s(I192
I214
tp293
F-0.1
s(I196
I385
tp294
F-0.1
s(I89
I201
tp295
F-0.2501934633414024
s(I200
I278
tp296
F0.0
s(I202
I230
tp297
F-0.1
s(I114
I195
tp298
F0.4188933114785496
s(I196
I355
tp299
F0.0
s(I43
I197
tp300
F-0.6448596731472218
s(I197
I372
tp301
F-0.1
s(I197
I379
tp302
F0.0
s(I47
I192
tp303
F-0.19113045567194378
s(I67
I203
tp304
F-0.1835139774027354
s(I198
I239
tp305
F-0.1
s(I194
I372
tp306
F-0.1
s(I141
I198
tp307
F1.1629553337889886
s(I198
I308
tp308
F-0.1
s(I192
I384
tp309
F0.0
s(I92
I193
tp310
F1.0340406451616035
s(I170
I192
tp311
F-0.6795185902339342
s(I117
I199
tp312
F-1.9054202533288946
s(I9
I198
tp313
F-2.5522943370571944
s(I192
I290
tp314
F-0.1
s(I193
I212
tp315
F0.0
s(I194
I218
tp316
F0.0
s(I195
I216
tp317
F0.0
s(I195
I303
tp318
F-0.1
s(I192
I239
tp319
F0.0
s(I34
I198
tp320
F-0.32640041017957977
s(I70
I199
tp321
F0.04896807915811558
s(I199
I335
tp322
F0.0
s(I200
I269
tp323
F-0.1
s(I58
I192
tp324
F-0.12644410115354804
s(I95
I197
tp325
F-1.1733899569415336
s(I173
I198
tp326
F-1.200766831113901
s(I193
I325
tp327
F0.0
s(I12
I196
tp328
F-0.010424680572968822
s(I160
I197
tp329
F-0.37524574245736636
s(I161
I201
tp330
F0.49864965771255115
s(I198
I214
tp331
F-0.1
s(I199
I220
tp332
F-0.1
s(I36
I194
tp333
F0.22664943786851557
s(I184
I203
tp334
F-0.40150298457603356
s(I185
I195
tp335
F1.2075912490856444
s(I203
I300
tp336
F0.0
s(I61
I198
tp337
F-0.32607846512124833
s(I138
I203
tp338
F-0.23708274560024228
s(I139
I203
tp339
F-0.3119826928914894
s(I196
I392
tp340
F0.0
s(I197
I262
tp341
F0.0
s(I90
I192
tp342
F-0.17810151318171127
s(I163
I193
tp343
F-0.2669949524873151
s(I201
I278
tp344
F-0.1
s(I187
I199
tp345
F-0.15510213852171395
s(I44
I196
tp346
F-0.12871785967301147
s(I47
I201
tp347
F-1.9359205551084548
s(I194
I367
tp348
F-0.1
s(I68
I194
tp349
F0.9642844556660463
s(I198
I303
tp350
F-0.1
s(I93
I198
tp351
F0.7443080796218462
s(I166
I201
tp352
F-0.23182384166878606
s(I170
I203
tp353
F-1.7944212515219877
s(I117
I192
tp354
F0.09190962930025944
s(I202
I389
tp355
F-0.1
s(I10
I199
tp356
F0.050867324610776886
s(I200
I357
tp357
F-0.1
s(I194
I213
tp358
F-0.1
s(I203
I389
tp359
F-0.1
s(I195
I276
tp360
F0.0
s(I202
I378
tp361
F-0.1
s(I34
I193
tp362
F-0.3859186964994112
s(I192
I258
tp363
F-0.1
s(I71
I196
tp364
F-0.009546864470532037
s(I198
I322
tp365
F-0.1
s(I58
I203
tp366
F0.21534755905309577
s(I59
I203
tp367
F0.39487220089444275
s(I95
I194
tp368
F2.7689786923696937
s(I136
I198
tp369
F0.05721383081487671
s(I83
I193
tp370
F-0.5199591752887551
s(I193
I350
tp371
F-0.1
s(I12
I195
tp372
F0.5502596056948941
s(I13
I203
tp373
F0.5466386911723327
s(I161
I194
tp374
F2.1550833604515773
s(I199
I213
tp375
F-0.1
s(I36
I201
tp376
F0.14248933130480598
s(I37
I197
tp377
F-0.14273383418807353
s(I185
I196
tp378
F-0.20711587827543138
s(I203
I293
tp379
F0.0
s(I200
I394
tp380
F0.0
s(I139
I192
tp381
F0.11429141147817488
s(I203
I344
tp382
F-0.1
s(I86
I201
tp383
F-0.43848002779859224
s(I197
I271
tp384
F-0.1
s(I90
I203
tp385
F-0.10215121957956654
s(I15
I199
tp386
F-0.16472439893778895
s(I163
I198
tp387
F0.44119456410410635
s(I201
I287
tp388
F-0.1
s(I200
I208
tp389
F0.0
s(I115
I193
tp390
F-0.3684642570222346
s(I188
I198
tp391
F-2.0132549119152827
s(I44
I195
tp392
F-0.4120436232001843
s(I199
I303
tp393
F-0.1
s(I194
I358
tp394
F0.0
s(I68
I201
tp395
F-0.4366538723497525
s(I69
I197
tp396
F0.1730876102313
s(I198
I294
tp397
F0.0
s(I56
I198
tp398
F0.4138923099655817
s(I166
I192
tp399
F0.04306852414597696
s(I117
I201
tp400
F0.7961810141107816
s(I118
I201
tp401
F-0.08993364942916023
s(I192
I304
tp402
F-0.1
s(I195
I285
tp403
F0.0
s(I197
I250
tp404
F0.0
s(I192
I348
tp405
F0.0
s(I202
I329
tp406
F-0.1
s(I203
I333
tp407
F0.0
s(I59
I192
tp408
F0.1058643517737717
s(I95
I203
tp409
F-0.2390847560722332
s(I80
I203
tp410
F-0.03890599083988071
s(I200
I231
tp411
F0.0
s(I83
I198
tp412
F-0.15081403488705913
s(I193
I343
tp413
F-0.1
s(I104
I193
tp414
F-0.28578544074521767
s(I13
I196
tp415
F-0.03431266437771243
s(I197
I359
tp416
F0.0
s(I199
I210
tp417
F-0.1
s(I186
I197
tp418
F-1.4025610753742812
s(I196
I380
tp419
F-0.1
s(I197
I241
tp420
F0.0
s(I140
I201
tp421
F0.31147975222106633
s(I86
I192
tp422
F0.20700316337447766
s(I197
I264
tp423
F-0.1
s(I164
I199
tp424
F1.1962426969214899
s(I115
I198
tp425
F-0.49270559523619206
s(I193
I293
tp426
F-0.1
s(I189
I201
tp427
F-0.383942920758993
s(I199
I225
tp428
F0.0
s(I194
I353
tp429
F-0.1
s(I195
I373
tp430
F0.0
s(I142
I193
tp431
F-0.02213642971744463
s(I193
I237
tp432
F-0.1
s(I167
I203
tp433
F-0.9077400155457854
s(I118
I192
tp434
F0.09998664566373695
s(I10
I201
tp435
F-0.5105308850292709
s(I191
I193
tp436
F-0.03908702669480107
s(I195
I207
tp437
F1.5915133171173135
s(I195
I258
tp438
F0.0
s(I35
I195
tp439
F-0.06774932720967851
s(I199
I314
tp440
F0.0
s(I202
I368
tp441
F0.0
s(I203
I322
tp442
F0.0
s(I60
I201
tp443
F-0.6087454227816287
s(I80
I194
tp444
F0.14743360258828878
s(I202
I390
tp445
F0.0
s(I200
I337
tp446
F-0.1
s(I84
I199
tp447
F0.05746290332091413
s(I104
I200
tp448
F-0.2255468150730261
s(I196
I342
tp449
F0.0
s(I197
I352
tp450
F-0.1
s(I192
I222
tp451
F-0.1
s(I200
I294
tp452
F-0.1
s(I198
I382
tp453
F0.0
s(I62
I193
tp454
F0.06290322717859324
s(I140
I192
tp455
F-0.057426398873789156
s(I87
I203
tp456
F-0.12236363499300526
s(I198
I385
tp457
F0.0
s(I201
I265
tp458
F-0.1
s(I111
I193
tp459
F0.29660834309315953
s(I24
I195
tp460
F-0.8949727105986891
s(I202
I270
tp461
F-0.1
s(I189
I194
tp462
F-3.557926118951579
s(I200
I374
tp463
F-0.1
s(I194
I376
tp464
F0.0
s(I195
I378
tp465
F0.0
s(I197
I386
tp466
F-0.1
s(I142
I200
tp467
F-0.8014429528019044
s(I94
I193
tp468
F-0.1091442243782192
s(I167
I192
tp469
F-0.6117466130021223
s(I119
I203
tp470
F-0.5968083249433671
s(I176
I200
tp471
F-0.2886224022925658
s(I195
I267
tp472
F0.0
s(I35
I200
tp473
F-0.36718833028571074
s(I199
I307
tp474
F0.0
s(I201
I208
tp475
F0.0
s(I129
I198
tp476
F-0.41237984399811334
s(I203
I379
tp477
F0.0
s(I60
I192
tp478
F-0.030754882227852935
s(I154
I198
tp479
F-0.22561126423516548
s(I193
I289
tp480
F-0.1
s(I105
I199
tp481
F-0.39373111543324146
s(I196
I349
tp482
F0.0
s(I197
I361
tp483
F-0.1
s(I200
I301
tp484
F-0.1
s(I38
I198
tp485
F0.6667115511527715
s(I203
I385
tp486
F0.0
s(I201
I387
tp487
F-0.1
s(I62
I200
tp488
F-0.15771758106896216
s(I87
I192
tp489
F-0.08967851815373455
s(I108
I203
tp490
F-0.3549471477906622
s(I0
I196
tp491
F-0.025730665894494256
s(I1
I202
tp492
F-1.157560130060366
s(I165
I193
tp493
F-0.43577442386345366
s(I96
I200
tp494
F-1.7473454069885797
s(I24
I202
tp495
F-0.44571735031276966
s(I202
I372
tp496
F-0.1
s(I196
I253
tp497
F-0.1
s(I49
I198
tp498
F-0.15519244853072922
s(I195
I355
tp499
F-0.1
s(I197
I395
tp500
F0.0
s(I198
I267
tp501
F-0.1
s(I143
I195
tp502
F-0.7316264774296108
s(I74
I198
tp503
F1.2571287609103345
s(I202
I275
tp504
F-0.1
s(I94
I200
tp505
F-0.9353961961993086
s(I202
I246
tp506
F0.0
s(I193
I369
tp507
F-0.1
s(I200
I248
tp508
F0.0
s(I119
I192
tp509
F-0.10248457938540821
s(I194
I236
tp510
F-0.1
s(I196
I309
tp511
F-0.1
s(I199
I296
tp512
F0.0
s(I201
I217
tp513
F0.0
s(I202
I354
tp514
F0.0
s(I130
I199
tp515
F0.009358795044792008
s(I81
I198
tp516
F0.6411132857204832
s(I200
I268
tp517
F-0.1
s(I154
I193
tp518
F-0.35252517968040503
s(I193
I314
tp519
F0.0
s(I85
I193
tp520
F-0.32560304590981787
s(I105
I200
tp521
F0.18994686710596417
s(I106
I198
tp522
F-0.3153660759666001
s(I14
I199
tp523
F-0.7807163084556589
s(I193
I270
tp524
F-0.1
s(I200
I340
tp525
F0.0
s(I195
I384
tp526
F0.0
s(I39
I197
tp527
F0.09606096426304803
s(I201
I318
tp528
F0.0
s(I63
I195
tp529
F-0.22059863862094478
s(I193
I292
tp530
F0.0
s(I192
I234
tp531
F0.0
s(I108
I194
tp532
F0.5273497920136743
s(I1
I195
tp533
F-0.47789758837899354
s(I165
I202
tp534
F-0.03402444944723695
s(I201
I391
tp535
F0.0
s(I197
I331
tp536
F0.0
s(I196
I362
tp537
F0.0
s(I25
I197
tp538
F-0.3070734469253723
s(I190
I194
tp539
F0.3158366264149088
s(I120
I197
tp540
F0.7950559019081566
s(I197
I356
tp541
F0.0
s(I197
I326
tp542
F-0.1
s(I194
I330
tp543
F-0.1
s(I50
I199
tp544
F-1.5056323830195695
s(I198
I258
tp545
F-0.1
s(I143
I200
tp546
F-1.7508526504415949
s(I128
I202
tp547
F-0.5577492689134264
s(I74
I193
tp548
F-1.1103272386957488
s(I195
I359
tp549
F0.0
s(I3
I199
tp550
F0.3287245843689456
s(I152
I192
tp551
F0.046829985719951034
s(I200
I252
tp552
F0.0
s(I192
I284
tp553
F-0.1
s(I28
I197
tp554
F-0.1058144348301598
s(I176
I198
tp555
F-0.6619238792956408
s(I177
I200
tp556
F0.3822370364138647
s(I196
I316
tp557
F-0.1
s(I201
I376
tp558
F0.0
s(I193
I371
tp559
F0.0
s(I199
I289
tp560
F-0.1
s(I202
I208
tp561
F-0.1
s(I202
I365
tp562
F-0.1
s(I203
I361
tp563
F0.0
s(I201
I371
tp564
F-0.1
s(I82
I199
tp565
F-0.2653223877643908
s(I154
I200
tp566
F-0.6737758014066669
s(I155
I202
tp567
F-0.2869703277904908
s(I193
I307
tp568
F-0.1
s(I85
I202
tp569
F-0.1319451905793265
s(I106
I193
tp570
F-0.42001732855065527
s(I197
I347
tp571
F-0.1
s(I179
I192
tp572
F-0.09914541960603203
s(I200
I347
tp573
F0.0
s(I110
I194
tp574
F-0.19442805034587635
s(I39
I194
tp575
F0.4145221751570325
s(I133
I196
tp576
F-0.04202080494439832
s(I63
I200
tp577
F0.5709216642840341
s(I48
I202
tp578
F-0.3058689016548183
s(I72
I192
tp579
F0.2099065795898435
s(I109
I197
tp580
F0.19075540428796006
s(I1
I196
tp581
F-0.10352121139851743
s(I2
I202
tp582
F-1.5206050986652182
s(I96
I198
tp583
F-0.8686728462035035
s(I97
I200
tp584
F0.3935069753459956
s(I26
I196
tp585
F0.023932696585626922
s(I190
I197
tp586
F1.2105897934642393
s(I192
I228
tp587
F-0.1
s(I121
I194
tp588
F-0.3193994103082855
s(I194
I325
tp589
F0.0
s(I195
I337
tp590
F-0.1
s(I198
I261
tp591
F0.0
s(I199
I393
tp592
F0.0
s(I128
I193
tp593
F-0.4478689318295985
s(I74
I200
tp594
F4.458244045533729
s(I75
I202
tp595
F-0.6981943706061634
s(I4
I198
tp596
F-0.06293719343061173
s(I152
I199
tp597
F-0.3068539552944533
s(I202
I312
tp598
F-0.1
s(I99
I192
tp599
F-0.06920314520628218
s(I192
I275
tp600
F-0.1
s(I200
I364
tp601
F-0.1
s(I29
I202
tp602
F-0.39433774609139477
s(I177
I193
tp603
F0.4912341147551282
s(I196
I315
tp604
F0.0
s(I124
I200
tp605
F-0.6140475972696833
s(I53
I196
tp606
F-0.11166427046624847
s(I202
I219
tp607
F-0.1
s(I198
I325
tp608
F0.0
s(I203
I366
tp609
F0.0
s(I199
I329
tp610
F-0.1
s(I7
I200
tp611
F0.1767304321316569
s(I155
I195
tp612
F0.3981171065517941
s(I193
I308
tp613
F0.0
s(I106
I200
tp614
F0.11401749643848767
s(I107
I202
tp615
F-0.7590939057093061
s(I179
I201
tp616
F2.1304699886871745
s(I200
I322
tp617
F0.0
s(I110
I197
tp618
F0.5030435698269887
s(I48
I193
tp619
F0.9878618898258028
s(I194
I301
tp620
F-0.1
s(I72
I199
tp621
F0.6518844733969618
s(I192
I382
tp622
F-0.1
s(I201
I293
tp623
F0.0
s(I2
I197
tp624
F-2.6152070182256164
s(I97
I193
tp625
F-0.6175577294556382
s(I192
I251
tp626
F0.0
s(I121
I203
tp627
F-0.8695884001005946
s(I194
I348
tp628
F-0.1
s(I195
I342
tp629
F0.0
s(I201
I221
tp630
F-0.1
s(I198
I380
tp631
F0.0
s(I199
I390
tp632
F0.0
s(I75
I195
tp633
F-0.5661287816331874
s(I153
I192
tp634
F0.09016459678224578
s(I99
I201
tp635
F-0.43081513402443516
s(I192
I362
tp636
F-0.1
s(I203
I386
tp637
F0.0
s(I29
I195
tp638
F1.003479498414276
s(I178
I200
tp639
F-0.37077581446139907
s(I124
I199
tp640
F0.09849425060787972
s(I197
I247
tp641
F0.0
s(I192
I339
tp642
F-0.1
s(I201
I204
tp643
F-1.0631789110060041
s(I203
I208
tp644
F-0.1
s(I203
I359
tp645
F-0.1
s(I131
I194
tp646
F0.01055504104907061
s(I194
I370
tp647
F0.0
s(I7
I193
tp648
F-0.2151562438157368
s(I156
I202
tp649
F0.29826624681256625
s(I107
I195
tp650
F-0.018913713149827937
s(I180
I192
tp651
F0.21867575577245282
s(I200
I329
tp652
F-0.1
s(I201
I349
tp653
F-0.1
s(I19
I194
tp654
F-0.40138743379806613
s(I202
I254
tp655
F0.0
s(I200
I387
tp656
F0.0
s(I196
I379
tp657
F0.0
s(I203
I375
tp658
F-0.1
s(I200
I354
tp659
F0.0
s(I194
I292
tp660
F-0.1
s(I158
I198
tp661
F-0.2973554798621622
s(I73
I192
tp662
F0.14555650845887388
s(I192
I392
tp663
F-0.1
s(I201
I302
tp664
F-0.1
s(I183
I202
tp665
F0.7113067260851453
s(I98
I200
tp666
F3.793623138921885
s(I192
I242
tp667
F0.0
s(I193
I228
tp668
F0.0
s(I122
I194
tp669
F-0.7805818077378001
s(I194
I343
tp670
F-0.1
s(I195
I351
tp671
F0.0
s(I51
I194
tp672
F-0.0029320055491065316
s(I196
I258
tp673
F0.0
s(I199
I383
tp674
F0.0
s(I198
I284
tp675
F-0.1
s(I202
I311
tp676
F0.0
s(I76
I202
tp677
F-0.7071026140317046
s(I149
I199
tp678
F-1.0828050579260262
s(I5
I194
tp679
F-2.777334731400861
s(I153
I201
tp680
F-0.3434037460956344
s(I100
I192
tp681
F-0.03200942909419561
s(I192
I353
tp682
F0.0
s(I197
I350
tp683
F-0.1
s(I178
I195
tp684
F0.034072285144202914
s(I196
I230
tp685
F0.0
s(I125
I200
tp686
F1.1344263882215924
s(I199
I268
tp687
F-0.1
s(I201
I245
tp688
F-0.1
s(I202
I205
tp689
F1.333307568097178
s(I200
I288
tp690
F0.0
s(I203
I284
tp691
F-0.1
s(I131
I203
tp692
F-0.5394529821595919
s(I78
I198
tp693
F0.11083693451849301
s(I200
I309
tp694
F0.0
s(I156
I193
tp695
F0.3338567848479546
s(I194
I385
tp696
F-0.1
s(I103
I202
tp697
F-0.22969966514519627
s(I197
I310
tp698
F-0.1
s(I192
I213
tp699
F0.0
s(I181
I199
tp700
F-0.42184952328415326
s(I201
I326
tp701
F-0.1
s(I19
I203
tp702
F0.4952593340971852
s(I199
I381
tp703
F-0.1
s(I134
I199
tp704
F-0.9136711081469874
s(I194
I319
tp705
F0.0
s(I158
I201
tp706
F0.2785007255367029
s(I159
I197
tp707
F-0.8200433559161114
s(I73
I201
tp708
F0.023649928136815084
s(I183
I195
tp709
F-1.1810607726322102
s(I200
I233
tp710
F-0.1
s(I98
I195
tp711
F2.472959287346436
s(I202
I265
tp712
F0.0
s(I27
I197
tp713
F0.3287589871344061
s(I193
I253
tp714
F0.0
s(I194
I229
tp715
F-0.1
s(I123
I201
tp716
F-0.5332039794848938
s(I195
I324
tp717
F0.0
s(I51
I203
tp718
F0.06309954897145319
s(I198
I366
tp719
F-0.1
s(I199
I372
tp720
F0.0
s(I198
I330
tp721
F0.0
s(I76
I193
tp722
F-0.5066207155912249
s(I149
I192
tp723
F-0.16573541279621695
s(I5
I203
tp724
F1.5657565930498167
s(I6
I203
tp725
F-0.2603234720844779
s(I101
I199
tp726
F-0.5857693215625309
s(I193
I366
tp727
F0.0
s(I196
I272
tp728
F0.0
s(I196
I237
tp729
F-0.1
s(I125
I193
tp730
F-0.4834770853550598
s(I198
I249
tp731
F-0.1
s(I199
I261
tp732
F0.0
s(I54
I199
tp733
F0.41950780059997594
s(I202
I244
tp734
F-0.1
s(I203
I206
tp735
F0.7434235913821078
s(I203
I277
tp736
F0.0
s(I132
I194
tp737
F0.24270133152196863
s(I78
I201
tp738
F-0.07793619235985418
s(I79
I197
tp739
F-0.2630846820561487
s(I193
I287
tp740
F0.0
s(I157
I198
tp741
F0.41643178418741156
s(I103
I195
tp742
F-0.04193603820819762
s(I197
I319
tp743
F-0.1
s(I16
I197
tp744
F-0.17951827624202404
s(I17
I201
tp745
F-1.1364229799027075
s(I181
I192
tp746
F0.08090752628922639
s(I201
I335
tp747
F0.0
s(I112
I201
tp748
F0.09794134625835486
s(I20
I194
tp749
F-0.532047990514932
s(I41
I195
tp750
F-0.2640173459428874
s(I200
I218
tp751
F-0.1
s(I135
I196
tp752
F-0.021766029313336353
s(I193
I392
tp753
F-0.1
s(I194
I310
tp754
F0.0
s(I159
I194
tp755
F-1.1379036102548516
s(I198
I321
tp756
F-0.1
s(I147
I193
tp757
F0.25783772539263183
s(I196
I303
tp758
F-0.1
s(I23
I196
tp759
F-0.059213311854729514
s(I193
I386
tp760
F0.0
s(I193
I246
tp761
F0.0
s(I194
I252
tp762
F-0.1
s(I195
I246
tp763
F-0.1
s(I195
I333
tp764
F0.0
s(I52
I194
tp765
F-0.08053407119114207
s(I198
I353
tp766
F-0.1
s(I199
I365
tp767
F-0.1
s(I146
I196
tp768
F-0.17771944476369037
s(I202
I313
tp769
F0.0
s(I200
I305
tp770
F-0.1
s(I77
I198
tp771
F-0.1189009762494182
s(I149
I201
tp772
F1.3086211995694401
s(I150
I201
tp773
F-0.3170570935094299
s(I6
I194
tp774
F0.8246495474507215
s(I199
I274
tp775
F-0.1
s(I101
I192
tp776
F0.04520367945416146
s(I193
I359
tp777
F0.0
s(I174
I195
tp778
F-1.305302616163272
s(I30
I196
tp779
F-0.019147144462172055
s(I196
I287
tp780
F0.0
s(I196
I212
tp781
F0.0
s(I197
I226
tp782
F-0.1
s(I198
I240
tp783
F0.0
s(I199
I258
tp784
F-0.1
s(I201
I231
tp785
F-0.1
s(I55
I196
tp786
F-0.16244263843986947
s(I203
I266
tp787
F0.0
s(I196
I372
tp788
F0.0
s(I132
I201
tp789
F0.13130059158561996
s(I79
I194
tp790
F-0.07549721759252044
s(I193
I272
tp791
F0.0
s(I203
I373
tp792
F-0.1
s(I197
I312
tp793
F0.0
s(I17
I194
tp794
F-1.059176681214198
s(I181
I201
tp795
F0.37145915308532645
s(I182
I201
tp796
F1.974290963753456
s(I112
I192
tp797
F0.11382160327736499
s(I20
I201
tp798
F-1.5011400984142185
s(I21
I197
tp799
F0.8398305298950476
s(I41
I196
tp800
F-0.18472346158329964
s(I193
I301
tp801
F0.0
s(I202
I296
tp802
F0.0
s(I199
I233
tp803
F0.0
s(I66
I196
tp804
F-0.09271500065809353
s(I194
I305
tp805
F-0.1
s(I159
I203
tp806
F-0.32613652465049187
s(I144
I203
tp807
F-0.6369290886889841
s(I147
I198
tp808
F-0.18430556872758477
s(I168
I193
tp809
F1.6133015918857807
s(I203
I234
tp810
F0.0
s(I193
I207
tp811
F-2.2630294920085166
s(I194
I247
tp812
F-0.1
s(I123
I199
tp813
F0.5228789200923334
s(I32
I203
tp814
F0.6937138349324492
s(I203
I305
tp815
F-0.1
s(I52
I201
tp816
F-0.4597706848695518
s(I198
I344
tp817
F0.0
s(I199
I362
tp818
F0.0
s(I195
I364
tp819
F0.0
s(I150
I192
tp820
F0.28153751233481333
s(I6
I197
tp821
F0.6999703079096605
s(I101
I201
tp822
F0.346161205390923
s(I102
I201
tp823
F0.07184233262469017
s(I174
I202
tp824
F-0.43762494447841144
s(I31
I199
tp825
F0.24338714234489095
s(I196
I211
tp826
F-0.1
s(I197
I235
tp827
F-0.1
s(I126
I195
tp828
F0.019381095435615166
s(I199
I251
tp829
F-0.1
s(I201
I232
tp830
F0.0
s(I198
I262
tp831
F-0.1
s(I203
I252
tp832
F-0.1
s(I203
I259
tp833
F-0.1
s(I79
I203
tp834
F-0.18585871270017768
s(I64
I203
tp835
F0.19115978603594738
s(I197
I328
tp836
F-0.1
s(I88
I193
tp837
F0.06150861052802204
s(I195
I252
tp838
F0.0
s(I195
I254
tp839
F0.0
s(I18
I203
tp840
F0.02630441958872053
s(I182
I192
tp841
F-0.3626465217424788
s(I112
I199
tp842
F-0.38827229712608496
s(I195
I307
tp843
F0.0
s(I42
I197
tp844
F0.19900152815487315
s(I202
I262
tp845
F-0.1
s(I194
I264
tp846
F-0.1
s(I144
I194
tp847
F0.27346568632128837
s(I148
I199
tp848
F0.08680643716750731
s(I168
I200
tp849
F-1.0861586157571028
s(I45
I201
tp850
F1.1062668607515687
s(I194
I206
tp851
F1.113256640892281
s(I195
I228
tp852
F-0.1
s(I32
I194
tp853
F-0.49668673253233786
s(I198
I339
tp854
F0.0
s(I199
I355
tp855
F-0.1
s(I202
I299
tp856
F-0.1
s(I151
I203
tp857
F-0.29303533707861745
s(I171
I194
tp858
F-1.2252950537640406
s(I192
I333
tp859
F-0.1
s(I102
I192
tp860
F-0.1021594776063244
s(I175
I193
tp861
F-0.1884832160093822
s(I196
I269
tp862
F0.0
s(I196
I218
tp863
F0.0
s(I197
I212
tp864
F0.0
s(I126
I202
tp865
F-0.5047750456413241
s(I199
I240
tp866
F-0.1
s(I202
I225
tp867
F0.0
s(I203
I245
tp868
F0.0
s(I203
I312
tp869
F0.0
s(I64
I194
tp870
F-0.7228249346333239
s(I137
I199
tp871
F-0.04675957693336127
s(I200
I270
tp872
F-0.1
s(I199
I263
tp873
F-0.1
s(I88
I200
tp874
F0.24233804325977165
s(I197
I298
tp875
F0.0
s(I162
I201
tp876
F-0.3950647574390825
s(I18
I194
tp877
F-0.023975573632632124
s(I201
I354
tp878
F0.0
s(I113
I192
tp879
F0.14664389706050876
s(I46
I193
tp880
F-0.37402321196554505
s(I194
I259
tp881
F-0.1
s(I203
I342
tp882
F0.0
s(I198
I315
tp883
F-0.1
s(I192
I373
tp884
F0.0
s(I91
I194
tp885
F-0.5583773285380509
s(I169
I199
tp886
F-0.4786898857570101
s(I8
I195
tp887
F-0.47090939930592934
s(I199
I285
tp888
F0.0
s(I45
I194
tp889
F-1.0350417568092658
s(I193
I217
tp890
F0.0
s(I195
I237
tp891
F0.0
s(I195
I288
tp892
F-0.1
s(I70
I202
tp893
F0.4305303460191817
s(I199
I344
tp894
F-0.1
s(I57
I199
tp895
F0.4097783752725573
s(I196
I261
tp896
F-0.1
s(I151
I192
tp897
F0.3389767232719427
s(I172
I203
tp898
F-0.5168057788478136
s(I192
I324
tp899
F-0.1
s(I193
I330
tp900
F0.0
s(I160
I200
tp901
F0.3710171669018587
s(I197
I221
tp902
F0.0
s(I198
I229
tp903
F0.0
s(I127
I193
tp904
F-0.4460195206172714
s(I202
I232
tp905
F-0.1
s(I40
I195
tp906
F-0.24255310510152073
s(I198
I234
tp907
F0.0
s(I200
I277
tp908
F-0.1
s(I137
I200
tp909
F-0.07074686676153988
s(I138
I198
tp910
F0.009690580234012293
s(I197
I272
tp911
F0.0
s(I89
I199
tp912
F0.16405630881691444
s(I162
I192
tp913
F0.15544129244392216
s(I201
I363
tp914
F-0.1
s(I202
I249
tp915
F-0.1
s(I114
I201
tp916
F0.2006867657065318
s(I22
I198
tp917
F-0.045432445294300135
s(I187
I200
tp918
F-0.9085846220047271
s(I194
I217
tp919
F-0.1
s(I203
I253
tp920
F-0.1
s(I46
I200
tp921
F-0.09347610509827953
s(I67
I197
tp922
F0.0650158143302553
s(I194
I375
tp923
F0.0
s(I198
I306
tp924
F-0.1
s(I145
I198
tp925
F-0.2843905239993143
s(I92
I203
tp926
F-0.30702484432773447
s(I195
I383
tp927
F0.0
s(I169
I200
tp928
F0.34873303512863146
s(I170
I198
tp929
F-0.6974203276090167
s(I116
I193
tp930
F0.4070908107875606
s(I8
I202
tp931
F-1.14329494173976
s(I192
I300
tp932
F0.0
s(I193
I210
tp933
F-0.1
s(I195
I210
tp934
F-0.1
s(I195
I297
tp935
F-0.1
s(I33
I198
tp936
F-1.244615054996307
s(I196
I255
tp937
F0.0
s(I198
I333
tp938
F-0.1
s(I199
I337
tp939
F0.0
s(I57
I200
tp940
F-0.5633234617973818
s(I58
I198
tp941
F-0.31924324451051134
s(I172
I194
tp942
F-0.2032171370927959
s(I192
I347
tp943
F0.0
s(I193
I323
tp944
F0.0
s(I11
I196
tp945
F-0.1444868937465778
s(I196
I371
tp946
F-0.1
s(I198
I220
tp947
F-0.1
s(I199
I230
tp948
F0.0
s(I36
I196
tp949
F0.05000634404692828
s(I184
I197
tp950
F0.05890934101026945
s(I40
I202
tp951
F-0.1507130135247124
s(I203
I310
tp952
F0.0
s(I65
I198
tp953
F0.16297633526212338
s(I138
I193
tp954
F-0.7097102238096994
s(I196
I386
tp955
F0.0
s(I89
I200
tp956
F-0.33681202401188765
s(I90
I198
tp957
F0.5519957799940921
s(I201
I312
tp958
F-0.1
s(I197
I295
tp959
F-0.1
s(I114
I192
tp960
F-0.17891988282773247
s(I187
I193
tp961
F-0.334887985294652
s(I43
I196
tp962
F-0.0045758989142500464
s(I199
I378
tp963
F0.0
s(I47
I195
tp964
F-1.3332489350707302
s(I67
I202
tp965
F0.26298166052705074
s(I68
I196
tp966
F-0.14462235211963514
s(I141
I197
tp967
F0.11165946925266955
s(I198
I309
tp968
F-0.1
s(I197
I333
tp969
F0.0
s(I92
I194
tp970
F0.6178434547263755
s(I170
I193
tp971
F-3.5742480548341433
s(I116
I200
tp972
F-1.0228714814625557
s(I117
I198
tp973
F0.9100885919016125
s(I9
I197
tp974
F0.4307428048191873
s(I192
I291
tp975
F0.0
s(I200
I356
tp976
F-0.1
s(I194
I219
tp977
F-0.1
s(I195
I219
tp978
F-0.1
s(I195
I302
tp979
F-0.1
s(I34
I199
tp980
F-0.16283577428924803
s(I70
I196
tp981
F-0.010103761424807912
s(I199
I334
tp982
F-0.1
s(I202
I324
tp983
F0.0
s(I58
I193
tp984
F-0.22084924111963272
s(I95
I196
tp985
F0.03057083867300064
s(I136
I192
tp986
F0.11197303859015476
s(I173
I197
tp987
F3.398027641915804
s(I193
I324
tp988
F-0.1
s(I197
I269
tp989
F0.0
s(I12
I197
tp990
F0.6172094299029954
s(I160
I198
tp991
F0.2807297078123153
s(I161
I200
tp992
F-0.3064736276644282
s(I197
I207
tp993
F-2.480594446070585
s(I198
I215
tp994
F0.0
s(I199
I223
tp995
F0.0
s(I36
I195
tp996
F0.10013077197546937
s(I185
I194
tp997
F3.91195818993442
s(I203
I303
tp998
F0.0
s(I61
I197
tp999
F-0.6355980983658793
s(I138
I200
tp1000
F0.46454618158480265
s(I139
I202
tp1001
F0.43893252595541205
s(I203
I345
tp1002
F0.0
s(I196
I393
tp1003
F0.0
s(I197
I261
tp1004
F0.0
s(I90
I193
tp1005
F-0.26555394977092955
s(I201
I347
tp1006
F0.0
s(I163
I192
tp1007
F0.03886205481819922
s(I201
I277
tp1008
F-0.1
s(I187
I198
tp1009
F-0.14893453799006967
s(I188
I200
tp1010
F-2.643627652705762
s(I44
I197
tp1011
F-1.6604092236408512
s(I200
I328
tp1012
F-0.1
s(I47
I200
tp1013
F-1.4454763564792361
s(I194
I364
tp1014
F0.0
s(I68
I195
tp1015
F-0.3495689136277973
s(I198
I300
tp1016
F0.0
s(I56
I192
tp1017
F0.058929122436250654
s(I93
I197
tp1018
F0.41314938869609047
s(I170
I200
tp1019
F2.953405621439062
s(I202
I358
tp1020
F-0.1
s(I10
I196
tp1021
F-0.14890252716333569
s(I194
I210
tp1022
F-0.1
s(I195
I279
tp1023
F0.0
s(I197
I251
tp1024
F-0.1
s(I71
I199
tp1025
F3.5847395724900055
s(I202
I335
tp1026
F-0.1
s(I58
I200
tp1027
F-0.7672497240934213
s(I59
I202
tp1028
F-0.3773790638277943
s(I136
I199
tp1029
F-0.2916038850066695
s(I199
I267
tp1030
F0.0
s(I83
I192
tp1031
F0.2118471096343324
s(I193
I349
tp1032
F-0.1
s(I13
I202
tp1033
F-0.36805421744216543
s(I161
I193
tp1034
F-0.0940822250982225
s(I198
I206
tp1035
F-1.3175731767449743
s(I199
I212
tp1036
F0.0
s(I36
I202
tp1037
F-0.11758182718313381
s(I37
I196
tp1038
F-0.004953743255546017
s(I185
I203
tp1039
F-0.615462017243444
s(I203
I292
tp1040
F-0.1
s(I202
I377
tp1041
F-0.1
s(I139
I195
tp1042
F-0.06776862594695397
s(I197
I270
tp1043
F-0.1
s(I90
I200
tp1044
F0.46817129069877456
s(I15
I198
tp1045
F-1.6881623996107717
s(I163
I201
tp1046
F-0.032159266176568536
s(I201
I286
tp1047
F-0.1
s(I115
I192
tp1048
F-0.07558313890672742
s(I193
I294
tp1049
F0.0
s(I188
I199
tp1050
F1.1307297340928901
s(I200
I267
tp1051
F-0.1
s(I194
I359
tp1052
F-0.1
s(I68
I202
tp1053
F0.9546486607614617
s(I69
I196
tp1054
F-0.09517417205236198
s(I198
I295
tp1055
F-0.1
s(I56
I199
tp1056
F-0.6769685043513249
s(I193
I238
tp1057
F0.0
s(I166
I193
tp1058
F-0.1801346313838424
s(I192
I386
tp1059
F0.0
s(I117
I200
tp1060
F0.3349839161525751
s(I201
I256
tp1061
F0.0
s(I192
I305
tp1062
F-0.1
s(I197
I342
tp1063
F0.0
s(I200
I217
tp1064
F-0.1
s(I195
I284
tp1065
F0.0
s(I199
I316
tp1066
F-0.1
s(I129
I203
tp1067
F-0.4327957641021965
s(I203
I332
tp1068
F-0.1
s(I59
I195
tp1069
F-0.3796195277262702
s(I95
I202
tp1070
F1.7428820752167367
s(I83
I201
tp1071
F-0.0011110956960329627
s(I193
I342
tp1072
F0.0
s(I104
I194
tp1073
F-0.29656266351802757
s(I13
I195
tp1074
F-0.8224209806780932
s(I197
I358
tp1075
F0.0
s(I192
I221
tp1076
F0.0
s(I199
I205
tp1077
F1.9609569941893121
s(I200
I385
tp1078
F-0.1
s(I196
I322
tp1079
F0.0
s(I186
I194
tp1080
F-3.3729818183774305
s(I199
I346
tp1081
F0.0
s(I140
I202
tp1082
F0.8570921398919699
s(I86
I193
tp1083
F-0.12083653515921558
s(I195
I341
tp1084
F-0.1
s(I200
I363
tp1085
F0.0
s(I164
I192
tp1086
F-0.2553274668800514
s(I195
I312
tp1087
F-0.1
s(I115
I201
tp1088
F-0.0291887587191071
s(I195
I360
tp1089
F0.0
s(I189
I200
tp1090
F0.33751454093485905
s(I200
I373
tp1091
F0.0
s(I49
I203
tp1092
F0.42067162081500836
s(I195
I372
tp1093
F0.0
s(I192
I315
tp1094
F-0.1
s(I142
I198
tp1095
F-0.42635222539223855
s(I201
I253
tp1096
F-0.1
s(I167
I202
tp1097
F1.9745830379887106
s(I201
I364
tp1098
F0.0
s(I118
I193
tp1099
F-0.49006035723603203
s(I192
I264
tp1100
F-0.1
s(I191
I192
tp1101
F-0.9025037334689381
s(I197
I284
tp1102
F0.0
s(I195
I206
tp1103
F0.3310501870936589
s(I195
I261
tp1104
F-0.1
s(I202
I328
tp1105
F0.0
s(I35
I194
tp1106
F-0.7717530695975771
s(I199
I309
tp1107
F0.0
s(I202
I369
tp1108
F-0.1
s(I203
I325
tp1109
F0.0
s(I60
I202
tp1110
F0.04645453844562677
s(I80
I195
tp1111
F-0.21004168408569468
s(I81
I203
tp1112
F-0.0912261514654849
s(I84
I192
tp1113
F-0.012108135270566797
s(I104
I201
tp1114
F0.01463549326930999
s(I196
I343
tp1115
F0.0
s(I197
I367
tp1116
F0.0
s(I200
I318
tp1117
F-0.1
s(I200
I295
tp1118
F-0.1
s(I200
I307
tp1119
F0.0
s(I62
I198
tp1120
F-0.22701809659780275
s(I200
I312
tp1121
F-0.1
s(I140
I193
tp1122
F0.3329494763648197
s(I200
I264
tp1123
F0.0
s(I87
I202
tp1124
F0.12759279690706746
s(I198
I390
tp1125
F0.0
s(I201
I264
tp1126
F0.0
s(I165
I199
tp1127
F-1.3604897738845168
s(I111
I192
tp1128
F0.009658934646029023
s(I200
I285
tp1129
F-0.1
s(I192
I210
tp1130
F-0.1
s(I24
I196
tp1131
F-0.10216543921584167
s(I189
I193
tp1132
F-0.16507043154510612
s(I196
I252
tp1133
F-0.1
s(I200
I274
tp1134
F-0.1
s(I194
I377
tp1135
F0.0
s(I195
I381
tp1136
F0.0
s(I197
I385
tp1137
F-0.1
s(I142
I201
tp1138
F-0.12768630569148268
s(I143
I197
tp1139
F-0.28987947666241654
s(I94
I198
tp1140
F-0.4036888037778183
s(I167
I195
tp1141
F-0.09404828933462421
s(I199
I282
tp1142
F0.0
s(I119
I202
tp1143
F2.2417545537253303
s(I191
I201
tp1144
F0.7922433715526002
s(I176
I201
tp1145
F2.166662043272184
s(I195
I266
tp1146
F0.0
s(I35
I203
tp1147
F0.6476143038156517
s(I199
I306
tp1148
F0.0
s(I201
I215
tp1149
F0.0
s(I129
I197
tp1150
F-0.7426185318784698
s(I203
I378
tp1151
F-0.1
s(I60
I193
tp1152
F-0.38650502397332026
s(I201
I271
tp1153
F-0.1
s(I154
I199
tp1154
F0.014473384386847378
s(I193
I288
tp1155
F0.0
s(I85
I199
tp1156
F-0.08177328029660372
s(I105
I198
tp1157
F-0.05696076900039167
s(I194
I277
tp1158
F-0.1
s(I197
I360
tp1159
F-0.1
s(I200
I302
tp1160
F-0.1
s(I195
I385
tp1161
F0.0
s(I38
I199
tp1162
F-0.40015912676361126
s(I198
I237
tp1163
F0.0
s(I62
I201
tp1164
F-0.12681136263861167
s(I63
I197
tp1165
F0.04014689784291385
s(I201
I259
tp1166
F0.0
s(I87
I195
tp1167
F-0.10410326920867402
s(I108
I196
tp1168
F-0.1214615925086674
s(I0
I197
tp1169
F0.8258525481632517
s(I1
I201
tp1170
F-0.5590930626401076
s(I165
I192
tp1171
F0.3306554353507917
s(I111
I201
tp1172
F0.042525582953733716
s(I96
I201
tp1173
F-0.9178859472782084
s(I196
I361
tp1174
F-0.1
s(I24
I203
tp1175
F0.47028977675182215
s(I25
I195
tp1176
F0.24293621432950568
s(I200
I313
tp1177
F0.0
s(I49
I197
tp1178
F-0.7276089191755888
s(I195
I354
tp1179
F0.0
s(I197
I394
tp1180
F-0.1
s(I198
I264
tp1181
F0.0
s(I143
I194
tp1182
F3.4202058668742925
s(I192
I390
tp1183
F0.0
s(I74
I199
tp1184
F-1.6469785309228826
s(I195
I356
tp1185
F0.0
s(I94
I201
tp1186
F-0.2957010510989878
s(I3
I193
tp1187
F-1.301796315849397
s(I119
I195
tp1188
F-1.2024821933363767
s(I176
I192
tp1189
F-0.05990660020686392
s(I196
I310
tp1190
F0.0
s(I199
I299
tp1191
F0.0
s(I201
I216
tp1192
F0.0
s(I202
I214
tp1193
F0.0
s(I202
I355
tp1194
F0.0
s(I130
I196
tp1195
F-0.05221493225869489
s(I81
I197
tp1196
F-0.37985231277845327
s(I201
I262
tp1197
F-0.1
s(I194
I393
tp1198
F0.0
s(I193
I313
tp1199
F-0.1
s(I85
I192
tp1200
F0.13551736440878684
s(I106
I199
tp1201
F-0.3431898168217582
s(I14
I196
tp1202
F-0.05008072451413925
s(I198
I376
tp1203
F-0.1
s(I200
I341
tp1204
F-0.1
s(I201
I384
tp1205
F0.0
s(I39
I196
tp1206
F0.033897701064058754
s(I63
I194
tp1207
F-0.56322060888899
s(I194
I282
tp1208
F0.0
s(I201
I344
tp1209
F0.0
s(I108
I195
tp1210
F-0.2896699973656202
s(I109
I203
tp1211
F-0.2865367426820709
s(I1
I194
tp1212
F-0.9606173263293972
s(I165
I201
tp1213
F-0.19502135303854748
s(I202
I298
tp1214
F-0.1
s(I96
I192
tp1215
F0.3477060902466018
s(I25
I196
tp1216
F0.007298685649517767
s(I190
I195
tp1217
F-0.20465627136964679
s(I120
I198
tp1218
F-0.7268530154592734
s(I197
I299
tp1219
F-0.1
s(I194
I331
tp1220
F0.0
s(I50
I196
tp1221
F-0.000504625210433081
s(I198
I259
tp1222
F-0.1
s(I143
I203
tp1223
F-0.6038970864638209
s(I128
I203
tp1224
F-0.37990992122176975
s(I201
I395
tp1225
F-0.1
s(I202
I283
tp1226
F0.0
s(I3
I198
tp1227
F-3.355743697843812
s(I152
I193
tp1228
F-0.38549469069137865
s(I202
I315
tp1229
F-0.1
s(I200
I210
tp1230
F-0.1
s(I198
I314
tp1231
F0.0
s(I192
I285
tp1232
F-0.1
s(I28
I198
tp1233
F-0.24547748106437184
s(I176
I199
tp1234
F-1.3368736793988034
s(I196
I317
tp1235
F0.0
s(I199
I288
tp1236
F-0.1
s(I202
I209
tp1237
F0.0
s(I198
I324
tp1238
F0.0
s(I203
I360
tp1239
F0.0
s(I82
I196
tp1240
F-0.0877390419290232
s(I154
I201
tp1241
F0.040564528055388696
s(I193
I306
tp1242
F0.0
s(I85
I201
tp1243
F-0.3588071784616776
s(I196
I332
tp1244
F-0.1
s(I197
I346
tp1245
F-0.1
s(I179
I195
tp1246
F1.9451816852192327
s(I200
I348
tp1247
F-0.1
s(I110
I195
tp1248
F-0.7964491191367684
s(I133
I195
tp1249
F-0.4977997547970673
s(I63
I203
tp1250
F0.015786291469354986
s(I48
I203
tp1251
F0.1929153964103241
s(I203
I350
tp1252
F0.0
s(I72
I193
tp1253
F1.0797667732816292
s(I192
I381
tp1254
F0.0
s(I109
I196
tp1255
F-0.050894493662282346
s(I201
I291
tp1256
F-0.1
s(I2
I203
tp1257
F1.3603771727117902
s(I96
I199
tp1258
F0.8753039241510329
s(I26
I197
tp1259
F-2.4515825955521393
s(I190
I202
tp1260
F0.9376196995794912
s(I192
I229
tp1261
F-0.1
s(I121
I193
tp1262
F-0.7399504448683887
s(I194
I322
tp1263
F-0.1
s(I195
I336
tp1264
F0.0
s(I198
I378
tp1265
F-0.1
s(I199
I392
tp1266
F-0.1
s(I128
I194
tp1267
F0.005891503248715194
s(I74
I201
tp1268
F1.2430629425280235
s(I202
I258
tp1269
F0.0
s(I4
I199
tp1270
F-0.5589701029930365
s(I152
I200
tp1271
F0.11486968336676312
s(I199
I279
tp1272
F-0.1
s(I99
I195
tp1273
F-0.6137294971410434
s(I197
I380
tp1274
F-0.1
s(I192
I276
tp1275
F0.0
s(I29
I201
tp1276
F0.034367497081235314
s(I177
I192
tp1277
F0.4130148231287643
s(I196
I292
tp1278
F-0.1
s(I124
I201
tp1279
F-0.20703489404501435
s(I53
I195
tp1280
F0.8795945857527644
s(I202
I216
tp1281
F0.0
s(I203
I218
tp1282
F-0.1
s(I203
I353
tp1283
F0.0
s(I7
I203
tp1284
F0.44738879136688536
s(I155
I194
tp1285
F0.863628477989785
s(I193
I267
tp1286
F-0.1
s(I106
I201
tp1287
F0.09921905409776355
s(I197
I323
tp1288
F-0.1
s(I179
I200
tp1289
F-1.1174620524261525
s(I200
I323
tp1290
F0.0
s(I110
I202
tp1291
F-0.24757589698249935
s(I202
I241
tp1292
F-0.1
s(I196
I378
tp1293
F0.0
s(I201
I268
tp1294
F-0.1
s(I134
I202
tp1295
F-0.5686803455470404
s(I48
I194
tp1296
F1.1696117503375492
s(I194
I298
tp1297
F-0.1
s(I194
I383
tp1298
F0.0
s(I72
I200
tp1299
F-1.3172624904371653
s(I201
I292
tp1300
F-0.1
s(I2
I194
tp1301
F-4.164403170897499
s(I97
I192
tp1302
F0.20593077175474384
s(I192
I252
tp1303
F0.0
s(I121
I202
tp1304
F-0.34684817880504737
s(I194
I349
tp1305
F-0.1
s(I195
I345
tp1306
F0.0
s(I198
I381
tp1307
F0.0
s(I199
I385
tp1308
F-0.1
s(I198
I287
tp1309
F-0.1
s(I75
I194
tp1310
F0.3107123494426334
s(I203
I393
tp1311
F0.0
s(I196
I327
tp1312
F0.0
s(I153
I199
tp1313
F0.14121468048357436
s(I99
I200
tp1314
F-0.5186582995739153
s(I194
I239
tp1315
F0.0
s(I192
I363
tp1316
F-0.1
s(I197
I351
tp1317
F0.0
s(I29
I194
tp1318
F-0.7276800960186954
s(I178
I201
tp1319
F0.6062305767940971
s(I124
I192
tp1320
F0.17027376470204675
s(I197
I246
tp1321
F0.0
s(I199
I278
tp1322
F-0.1
s(I54
I202
tp1323
F-0.0993226939017028
s(I203
I211
tp1324
F-0.1
s(I203
I358
tp1325
F0.0
s(I131
I197
tp1326
F-0.4106446046104624
s(I196
I328
tp1327
F0.0
s(I7
I192
tp1328
F0.14567794204111179
s(I156
I203
tp1329
F-0.23054134293410647
s(I194
I384
tp1330
F0.0
s(I107
I194
tp1331
F-0.7741834718839269
s(I16
I200
tp1332
F-0.5732408521268996
s(I180
I193
tp1333
F0.5058172821026273
s(I200
I330
tp1334
F-0.1
s(I201
I348
tp1335
F0.0
s(I19
I197
tp1336
F-0.4833248548750468
s(I201
I388
tp1337
F0.0
s(I194
I293
tp1338
F0.0
s(I158
I199
tp1339
F-0.17176115989500107
s(I73
I199
tp1340
F-0.5221005508512343
s(I201
I301
tp1341
F0.0
s(I183
I197
tp1342
F-2.2459980189413473
s(I98
I201
tp1343
F1.5038092115097481
s(I202
I264
tp1344
F-0.1
s(I192
I243
tp1345
F-0.1
s(I193
I251
tp1346
F0.0
s(I122
I195
tp1347
F3.175036332446391
s(I194
I340
tp1348
F-0.1
s(I195
I350
tp1349
F-0.1
s(I51
I197
tp1350
F0.026888727469161867
s(I198
I372
tp1351
F-0.1
s(I199
I382
tp1352
F-0.1
s(I202
I308
tp1353
F-0.1
s(I76
I203
tp1354
F-0.1269726252551699
s(I149
I198
tp1355
F-0.44797535559219354
s(I5
I193
tp1356
F2.2371795193464883
s(I153
I200
tp1357
F-0.11863309542758325
s(I100
I193
tp1358
F-0.6214907045094973
s(I192
I354
tp1359
F-0.1
s(I178
I192
tp1360
F0.1593369794526629
s(I196
I231
tp1361
F-0.1
s(I125
I199
tp1362
F-0.8437685837524439
s(I199
I271
tp1363
F0.0
s(I201
I244
tp1364
F-0.1
s(I197
I296
tp1365
F-0.1
s(I203
I287
tp1366
F-0.1
s(I131
I202
tp1367
F-0.6237418319990302
s(I132
I196
tp1368
F-0.012361033682576308
s(I78
I199
tp1369
F0.26804630412202385
s(I202
I341
tp1370
F-0.1
s(I156
I194
tp1371
F-0.8668707784526197
s(I103
I197
tp1372
F-0.22522750861630447
s(I197
I309
tp1373
F0.0
s(I180
I200
tp1374
F0.9044278179621492
s(I181
I198
tp1375
F-0.627275064838192
s(I201
I325
tp1376
F-0.1
s(I19
I202
tp1377
F0.8031719478242164
s(I20
I196
tp1378
F-0.03021951235900111
s(I201
I295
tp1379
F0.0
s(I134
I196
tp1380
F-0.1886119286219342
s(I194
I316
tp1381
F0.0
s(I159
I196
tp1382
F-0.14704126293771774
s(I201
I314
tp1383
F-0.1
s(I73
I200
tp1384
F0.9241750312821679
s(I183
I194
tp1385
F-2.0962606309179614
s(I196
I302
tp1386
F0.0
s(I98
I192
tp1387
F-0.013529585462044061
s(I193
I387
tp1388
F-0.1
s(I27
I196
tp1389
F-0.02705602402500946
s(I196
I251
tp1390
F0.0
s(I193
I252
tp1391
F0.0
s(I122
I202
tp1392
F-0.3532070476943451
s(I123
I200
tp1393
F-0.9389442148355153
s(I195
I327
tp1394
F0.0
s(I51
I202
tp1395
F-0.3276035307887905
s(I52
I196
tp1396
F-0.04313727408791779
s(I198
I367
tp1397
F-0.1
s(I199
I375
tp1398
F-0.1
s(I146
I202
tp1399
F-0.41235821039257387
s(I202
I319
tp1400
F-0.1
s(I76
I194
tp1401
F-0.21737575326042938
s(I5
I202
tp1402
F-1.4902823551788227
s(I6
I200
tp1403
F0.5210623009864855
s(I100
I200
tp1404
F-0.051316253893538964
s(I101
I198
tp1405
F-0.3307836238472914
s(I193
I365
tp1406
F-0.1
s(I197
I341
tp1407
F0.0
s(I30
I194
tp1408
F0.2799620504342824
s(I196
I273
tp1409
F0.0
s(I196
I238
tp1410
F0.0
s(I125
I192
tp1411
F-0.08091575960061674
s(I198
I254
tp1412
F-0.1
s(I199
I260
tp1413
F0.0
s(I54
I196
tp1414
F-0.14408437119927833
s(I202
I245
tp1415
F-0.1
s(I203
I276
tp1416
F0.0
s(I196
I267
tp1417
F0.0
s(I132
I195
tp1418
F-0.05125004035885221
s(I192
I225
tp1419
F0.0
s(I79
I196
tp1420
F-0.16260904725840333
s(I193
I286
tp1421
F0.0
s(I157
I197
tp1422
F-0.033652786186678114
s(I103
I194
tp1423
F-0.10126546970406722
s(I197
I318
tp1424
F-0.1
s(I16
I198
tp1425
F0.38206344516195984
s(I17
I200
tp1426
F-1.9839720563275964
s(I200
I376
tp1427
F0.0
s(I201
I334
tp1428
F-0.1
s(I112
I202
tp1429
F-0.13886879634732302
s(I20
I195
tp1430
F-1.5736656273024032
s(I41
I194
tp1431
F-0.11927126300708839
s(I193
I302
tp1432
F0.0
s(I135
I199
tp1433
F-0.8055591728372454
s(I66
I202
tp1434
F0.22919931856175635
s(I194
I311
tp1435
F0.0
s(I201
I341
tp1436
F-0.1
s(I192
I224
tp1437
F0.0
s(I147
I192
tp1438
F0.2853671536726347
s(I196
I336
tp1439
F-0.1
s(I201
I343
tp1440
F0.0
s(I23
I199
tp1441
F3.7494600992212077
s(I203
I235
tp1442
F0.0
s(I193
I245
tp1443
F0.0
s(I194
I253
tp1444
F0.0
s(I123
I193
tp1445
F0.09842984600082937
s(I195
I332
tp1446
F0.0
s(I52
I195
tp1447
F-0.060867934466473636
s(I198
I358
tp1448
F0.0
s(I199
I364
tp1449
F0.0
s(I146
I197
tp1450
F0.5137998358406429
s(I195
I365
tp1451
F0.0
s(I77
I197
tp1452
F-0.7817717629444946
s(I149
I200
tp1453
F1.3866944002537989
s(I193
I257
tp1454
F-0.1
s(I6
I195
tp1455
F0.858694753520061
s(I192
I368
tp1456
F0.0
s(I193
I358
tp1457
F0.0
s(I174
I192
tp1458
F0.43488608578834803
s(I30
I197
tp1459
F0.44806662858788254
s(I196
I280
tp1460
F0.0
s(I196
I213
tp1461
F-0.1
s(I197
I225
tp1462
F0.0
s(I198
I241
tp1463
F0.0
s(I199
I253
tp1464
F-0.1
s(I201
I230
tp1465
F0.0
s(I55
I199
tp1466
F-0.10743123058127789
s(I203
I269
tp1467
F-0.1
s(I132
I202
tp1468
F-0.13147720974017202
s(I193
I279
tp1469
F-0.1
s(I203
I347
tp1470
F-0.1
s(I195
I253
tp1471
F-0.1
s(I17
I193
tp1472
F3.5395080863681585
s(I181
I200
tp1473
F-0.1705190361058665
s(I199
I238
tp1474
F0.0
s(I112
I193
tp1475
F0.1366584128689182
s(I20
I202
tp1476
F0.8981764797645055
s(I21
I196
tp1477
F0.009431452808579086
s(I41
I203
tp1478
F0.4475084227637102
s(I199
I293
tp1479
F0.0
s(I201
I240
tp1480
F-0.1
s(I66
I197
tp1481
F0.666259608963295
s(I194
I270
tp1482
F0.0
s(I198
I227
tp1483
F0.0
s(I159
I202
tp1484
F0.05770977644357722
s(I192
I314
tp1485
F-0.1
s(I147
I201
tp1486
F-0.6956674132263777
s(I168
I194
tp1487
F-0.5308276724959273
s(I192
I216
tp1488
F-0.1
s(I193
I206
tp1489
F-1.957089844499396
s(I194
I244
tp1490
F-0.1
s(I123
I198
tp1491
F0.3550861606077311
s(I195
I309
tp1492
F0.0
s(I52
I202
tp1493
F-0.3290337347154801
s(I198
I345
tp1494
F-0.1
s(I199
I357
tp1495
F-0.1
s(I202
I289
tp1496
F-0.1
s(I198
I348
tp1497
F0.0
s(I150
I193
tp1498
F0.28240840117890953
s(I202
I290
tp1499
F0.0
s(I101
I200
tp1500
F1.1335230134433938
s(I193
I383
tp1501
F-0.1
s(I174
I203
tp1502
F-0.22516107742808686
s(I31
I198
tp1503
F-0.3354061460297178
s(I196
I220
tp1504
F0.0
s(I197
I234
tp1505
F-0.1
s(I126
I192
tp1506
F-0.09789917015961558
s(I199
I250
tp1507
F-0.1
s(I201
I239
tp1508
F-0.1
s(I202
I231
tp1509
F-0.1
s(I203
I255
tp1510
F-0.1
s(I203
I258
tp1511
F-0.1
s(I79
I202
tp1512
F-0.6759368423547754
s(I199
I326
tp1513
F0.0
s(I88
I194
tp1514
F-0.12187753035255075
s(I196
I282
tp1515
F-0.1
s(I196
I320
tp1516
F-0.1
s(I18
I200
tp1517
F0.15068488427925278
s(I182
I193
tp1518
F-1.1933075742341301
s(I42
I194
tp1519
F-0.07312681553078898
s(I194
I265
tp1520
F0.0
s(I200
I361
tp1521
F-0.1
s(I144
I195
tp1522
F-2.7677966674778083
s(I145
I203
tp1523
F-1.2562231077631594
s(I203
I371
tp1524
F0.0
s(I195
I358
tp1525
F-0.1
s(I148
I192
tp1526
F0.15679121271489174
s(I168
I201
tp1527
F-2.250200462443565
s(I193
I378
tp1528
F0.0
s(I200
I207
tp1529
F2.1006881191739146
s(I45
I200
tp1530
F0.8596508839423964
s(I194
I207
tp1531
F-2.4027500544601215
s(I195
I231
tp1532
F-0.1
s(I32
I195
tp1533
F0.23347105571066126
s(I33
I203
tp1534
F0.12048123347652545
s(I198
I336
tp1535
F0.0
s(I197
I324
tp1536
F0.0
s(I200
I306
tp1537
F-0.1
s(I196
I265
tp1538
F0.0
s(I196
I260
tp1539
F0.0
s(I151
I202
tp1540
F-0.6986477508718597
s(I171
I197
tp1541
F-1.4840345312797285
s(I192
I334
tp1542
F-0.1
s(I102
I193
tp1543
F-0.20795363799158467
s(I11
I201
tp1544
F-0.9468490893126149
s(I175
I192
tp1545
F0.2674373571776804
s(I194
I285
tp1546
F0.0
s(I196
I219
tp1547
F-0.1
s(I197
I211
tp1548
F0.0
s(I126
I203
tp1549
F-0.39880979189825416
s(I199
I243
tp1550
F-0.1
s(I202
I238
tp1551
F0.0
s(I203
I244
tp1552
F0.0
s(I203
I315
tp1553
F0.0
s(I196
I296
tp1554
F-0.1
s(I64
I195
tp1555
F-0.41203314970336835
s(I65
I203
tp1556
F-0.00019159831463742112
s(I137
I198
tp1557
F-0.2892667069014815
s(I200
I316
tp1558
F-0.1
s(I88
I201
tp1559
F-0.36432099095709286
s(I197
I297
tp1560
F0.0
s(I162
I198
tp1561
F0.8055860045227875
s(I18
I195
tp1562
F1.3098202434970498
s(I201
I353
tp1563
F-0.1
s(I113
I199
tp1564
F-0.31952673246159974
s(I196
I353
tp1565
F-0.1
s(I43
I201
tp1566
F0.018799934345407304
s(I46
I198
tp1567
F-0.40618387763758557
s(I194
I256
tp1568
F0.0
s(I194
I374
tp1569
F0.0
s(I198
I312
tp1570
F0.0
s(I91
I197
tp1571
F-0.3105390889487246
s(I169
I198
tp1572
F-0.35029541277963966
s(I8
I196
tp1573
F-0.12176315442169855
s(I45
I193
tp1574
F-2.7086809544339334
s(I193
I216
tp1575
F0.0
s(I195
I236
tp1576
F-0.1
s(I195
I291
tp1577
F-0.1
s(I70
I203
tp1578
F0.274443897618571
s(I199
I347
tp1579
F0.0
s(I57
I198
tp1580
F-0.15902433376079295
s(I200
I250
tp1581
F-0.1
s(I151
I195
tp1582
F-0.18383422337757047
s(I172
I196
tp1583
F-0.11291278703580268
s(I192
I325
tp1584
F0.0
s(I193
I329
tp1585
F0.0
s(I175
I201
tp1586
F0.050493494063058905
s(I160
I201
tp1587
F-0.22858435265685423
s(I197
I220
tp1588
F-0.1
s(I198
I218
tp1589
F-0.1
s(I127
I192
tp1590
F0.13601083207966733
s(I202
I233
tp1591
F0.0
s(I40
I196
tp1592
F-0.12216022366009506
s(I192
I233
tp1593
F0.0
s(I202
I278
tp1594
F-0.1
s(I138
I199
tp1595
F-1.4361134710518793
s(I197
I330
tp1596
F-0.1
s(I196
I388
tp1597
F-0.1
s(I89
I198
tp1598
F-0.7817289845270768
s(I201
I336
tp1599
F0.0
s(I162
I193
tp1600
F-0.19627776589991994
s(I201
I362
tp1601
F0.0
s(I114
I198
tp1602
F0.2442953625058359
s(I22
I199
tp1603
F0.4732676383003748
s(I187
I203
tp1604
F-0.3408571780434489
s(I197
I335
tp1605
F-0.1
s(I46
I201
tp1606
F-0.40688292086954697
s(I47
I197
tp1607
F-2.842545692254697
s(I67
I196
tp1608
F-0.12386753266877538
s(I141
I203
tp1609
F-0.3025232685794194
s(I198
I307
tp1610
F0.0
s(I145
I197
tp1611
F-0.5976436210891859
s(I92
I196
tp1612
F-0.025872178341564824
s(I170
I199
tp1613
F-2.775862160987803
s(I116
I194
tp1614
F0.6240945591750244
s(I8
I203
tp1615
F1.446643186126132
s(I9
I195
tp1616
F0.5780617957497296
s(I192
I301
tp1617
F-0.1
s(I193
I209
tp1618
F0.0
s(I195
I213
tp1619
F-0.1
s(I195
I296
tp1620
F0.0
s(I33
I197
tp1621
F0.7307537177403227
s(I70
I194
tp1622
F-0.0330718539133831
s(I199
I336
tp1623
F-0.1
s(I198
I342
tp1624
F-0.1
s(I202
I346
tp1625
F0.0
s(I58
I199
tp1626
F-0.08170760030643265
s(I202
I362
tp1627
F0.0
s(I172
I195
tp1628
F-0.2708587049334196
s(I173
I203
tp1629
F-0.8570020767469584
s(I193
I322
tp1630
F-0.1
s(I11
I199
tp1631
F-0.6528352068986789
s(I160
I192
tp1632
F0.15979941681523524
s(I194
I368
tp1633
F-0.1
s(I198
I221
tp1634
F-0.1
s(I127
I201
tp1635
F-0.09191195188648663
s(I36
I197
tp1636
F0.399179158525313
s(I184
I198
tp1637
F-0.29048580310643846
s(I40
I203
tp1638
F0.368775475423669
s(I203
I297
tp1639
F0.0
s(I194
I381
tp1640
F-0.1
s(I61
I203
tp1641
F0.035577705398838214
s(I65
I197
tp1642
F-0.6688649727489419
s(I200
I392
tp1643
F-0.1
s(I196
I387
tp1644
F0.0
s(I197
I283
tp1645
F0.0
s(I90
I199
tp1646
F-1.2079527132991315
s(I201
I275
tp1647
F-0.1
s(I114
I193
tp1648
F-0.4766704346892596
s(I203
I368
tp1649
F0.0
s(I187
I192
tp1650
F0.07534989246016136
s(I43
I199
tp1651
F-0.3787631712728173
s(I202
I339
tp1652
F0.0
s(I194
I284
tp1653
F0.0
s(I47
I194
tp1654
F1.6423335023008487
s(I194
I274
tp1655
F0.0
s(I68
I197
tp1656
F-0.6474310449818346
s(I201
I214
tp1657
F0.0
s(I141
I196
tp1658
F-0.13849148374744316
s(I198
I298
tp1659
F-0.1
s(I92
I195
tp1660
F-0.4132767316105992
s(I93
I203
tp1661
F-0.15551539568850783
s(I116
I201
tp1662
F-0.32240875097807975
s(I117
I197
tp1663
F-0.6109800394312134
s(I9
I196
tp1664
F-0.13134765701890974
s(I192
I292
tp1665
F-0.1
s(I194
I216
tp1666
F0.0
s(I195
I218
tp1667
F0.0
s(I195
I273
tp1668
F0.0
s(I202
I306
tp1669
F-0.1
s(I34
I196
tp1670
F-0.026207307016982158
s(I70
I197
tp1671
F-0.987018820286462
s(I71
I201
tp1672
F-1.7243243760339106
s(I202
I325
tp1673
F0.0
s(I203
I337
tp1674
F-0.1
s(I95
I199
tp1675
F3.3945895489687623
s(I136
I193
tp1676
F-0.28555494107499213
s(I200
I229
tp1677
F0.0
s(I173
I196
tp1678
F-0.09896898935815684
s(I193
I347
tp1679
F0.0
s(I12
I198
tp1680
F-1.8804833344717724
s(I160
I199
tp1681
F-0.31073014076351285
s(I197
I371
tp1682
F-0.1
s(I197
I206
tp1683
F1.8891048212975066
s(I198
I212
tp1684
F0.0
s(I199
I222
tp1685
F-0.1
s(I185
I193
tp1686
F-0.661358170230872
s(I203
I302
tp1687
F0.0
s(I196
I370
tp1688
F0.0
s(I199
I281
tp1689
F-0.1
s(I61
I196
tp1690
F-0.1423072390009474
s(I138
I201
tp1691
F0.3912204371734772
s(I196
I394
tp1692
F-0.1
s(I197
I260
tp1693
F-0.1
s(I163
I195
tp1694
F-0.003308472214029341
s(I201
I276
tp1695
F-0.1
s(I200
I291
tp1696
F0.0
s(I193
I295
tp1697
F0.0
s(I188
I201
tp1698
F1.4854924735761847
s(I44
I198
tp1699
F0.4516150254112409
s(I200
I266
tp1700
F0.0
s(I47
I203
tp1701
F0.7831313534506844
s(I194
I365
tp1702
F-0.1
s(I195
I393
tp1703
F0.0
s(I198
I301
tp1704
F0.0
s(I195
I241
tp1705
F0.0
s(I56
I193
tp1706
F0.048089820247004374
s(I93
I196
tp1707
F-0.06065972888065517
s(I193
I239
tp1708
F-0.1
s(I170
I201
tp1709
F3.743232580599437
s(I203
I224
tp1710
F-0.1
s(I10
I197
tp1711
F-0.5090271392695299
s(I197
I343
tp1712
F0.0
s(I194
I211
tp1713
F-0.1
s(I195
I278
tp1714
F-0.1
s(I203
I311
tp1715
F0.0
s(I71
I198
tp1716
F-0.24924244309846189
s(I202
I332
tp1717
F-0.1
s(I58
I201
tp1718
F-0.3045237024641168
s(I136
I200
tp1719
F0.2744678116294333
s(I83
I195
tp1720
F-0.37826750470483705
s(I193
I348
tp1721
F-0.1
s(I194
I392
tp1722
F-0.1
s(I13
I201
tp1723
F-0.5906844867328425
s(I161
I192
tp1724
F-0.1759903782694021
s(I192
I220
tp1725
F0.0
s(I198
I207
tp1726
F0.38401660753818034
s(I199
I215
tp1727
F-0.1
s(I36
I203
tp1728
F0.17976263611614432
s(I37
I195
tp1729
F-0.09119910923380986
s(I185
I202
tp1730
F-0.05423259262716199
s(I203
I295
tp1731
F-0.1
s(I201
I255
tp1732
F0.0
s(I139
I194
tp1733
F0.041638895113012137
s(I202
I336
tp1734
F-0.1
s(I195
I226
tp1735
F0.0
s(I90
I201
tp1736
F-0.05351574989753806
s(I15
I193
tp1737
F-2.1093702297179955
s(I163
I200
tp1738
F-0.35082760442509153
s(I201
I285
tp1739
F-0.1
s(I195
I313
tp1740
F0.0
s(I115
I195
tp1741
F-0.1490072366536082
s(I188
I192
tp1742
F-0.6738153040726396
s(I200
I372
tp1743
F0.0
s(I194
I356
tp1744
F0.0
s(I68
I203
tp1745
F-0.058150913824854794
s(I69
I195
tp1746
F0.835351454515669
s(I198
I292
tp1747
F-0.1
s(I56
I200
tp1748
F0.340499582849465
s(I200
I258
tp1749
F-0.1
s(I166
I198
tp1750
F-0.0611453279492307
s(I202
I269
tp1751
F-0.1
s(I192
I306
tp1752
F-0.1
s(I197
I285
tp1753
F-0.1
s(I195
I287
tp1754
F0.0
s(I203
I374
tp1755
F0.0
s(I199
I319
tp1756
F-0.1
s(I197
I289
tp1757
F-0.1
s(I129
I202
tp1758
F-0.1495638406908965
s(I203
I335
tp1759
F0.0
s(I59
I194
tp1760
F-0.5601888327010066
s(I83
I200
tp1761
F-0.1502625036129867
s(I193
I341
tp1762
F0.0
s(I104
I195
tp1763
F-0.1396039010298544
s(I13
I194
tp1764
F0.04527810919583176
s(I197
I357
tp1765
F-0.1
s(I201
I365
tp1766
F-0.1
s(I196
I354
tp1767
F-0.1
s(I38
I202
tp1768
F-0.7010555587074152
s(I186
I195
tp1769
F-0.6517458608023606
s(I199
I226
tp1770
F0.0
s(I200
I209
tp1771
F0.0
s(I140
I203
tp1772
F-0.3920530610492164
s(I86
I198
tp1773
F-1.298212090828767
s(I0
I200
tp1774
F-0.6568322261222507
s(I164
I193
tp1775
F0.2690006522241756
s(I115
I200
tp1776
F-0.31044918978118036
s(I201
I254
tp1777
F0.0
s(I201
I390
tp1778
F0.0
s(I189
I199
tp1779
F-1.2242279742556856
s(I196
I243
tp1780
F-0.1
s(I49
I202
tp1781
F-0.6086227622152741
s(I195
I375
tp1782
F-0.1
s(I197
I391
tp1783
F0.0
s(I142
I199
tp1784
F0.37287874399132126
s(I201
I304
tp1785
F0.0
s(I167
I197
tp1786
F1.5049211789137555
s(I118
I198
tp1787
F-0.8330343792183237
s(I192
I265
tp1788
F0.0
s(I191
I195
tp1789
F0.5803497754747865
s(I195
I260
tp1790
F-0.1
s(I35
I197
tp1791
F-0.7646612674335461
s(I199
I308
tp1792
F0.0
s(I129
I195
tp1793
F0.23223368136059733
s(I203
I324
tp1794
F-0.1
s(I196
I259
tp1795
F-0.1
s(I60
I203
tp1796
F-0.10952663527179368
s(I80
I196
tp1797
F-0.04917275925494926
s(I81
I202
tp1798
F-0.3125418714430318
s(I84
I193
tp1799
F-0.17834283140597712
s(I104
I202
tp1800
F-0.2733836002881142
s(I194
I276
tp1801
F-0.1
s(I197
I366
tp1802
F0.0
s(I200
I296
tp1803
F-0.1
s(I186
I202
tp1804
F0.5136143614389589
s(I62
I199
tp1805
F-0.4091970118292457
s(I200
I283
tp1806
F-0.1
s(I140
I194
tp1807
F1.434940314558308
s(I87
I197
tp1808
F0.10436427748115264
s(I197
I277
tp1809
F-0.1
s(I164
I200
tp1810
F-1.2163113891688404
s(I165
I198
tp1811
F1.5734763398431268
s(I111
I195
tp1812
F-0.3563171416351207
s(I196
I360
tp1813
F0.0
s(I24
I197
tp1814
F0.795676909772705
s(I189
I192
tp1815
F0.23526566271269267
s(I49
I195
tp1816
F0.5790172620405794
s(I195
I380
tp1817
F0.0
s(I194
I369
tp1818
F0.0
s(I197
I384
tp1819
F-0.1
s(I198
I278
tp1820
F0.0
s(I143
I196
tp1821
F-0.1327374794830165
s(I192
I389
tp1822
F0.0
s(I195
I357
tp1823
F-0.1
s(I94
I199
tp1824
F0.2077648889840787
s(I167
I194
tp1825
F4.089013035740711
s(I119
I197
tp1826
F-1.4499270452956636
s(I191
I200
tp1827
F-3.574200982495845
s(I176
I202
tp1828
F-1.26587886559528
s(I195
I269
tp1829
F-0.1
s(I35
I202
tp1830
F-0.49755351803803005
s(I199
I301
tp1831
F-0.1
s(I197
I348
tp1832
F0.0
s(I129
I196
tp1833
F-0.0245591608010767
s(I130
I202
tp1834
F-0.2961947205350061
s(I60
I194
tp1835
F-0.13047216349112284
s(I81
I195
tp1836
F0.41935105872306555
s(I154
I196
tp1837
F-0.14999081571819847
s(I84
I200
tp1838
F0.026847414669662797
s(I85
I198
tp1839
F-0.6302853745199302
s(I105
I197
tp1840
F-0.12445718762030869
s(I196
I351
tp1841
F-0.1
s(I14
I194
tp1842
F-1.241953832247435
s(I193
I374
tp1843
F-0.1
s(I200
I303
tp1844
F0.0
s(I201
I385
tp1845
F0.0
s(I38
I196
tp1846
F-0.17669375242753635
s(I193
I377
tp1847
F0.0
s(I63
I196
tp1848
F0.015926390220573516
s(I87
I194
tp1849
F-0.1388935676715643
s(I201
I345
tp1850
F-0.1
s(I108
I197
tp1851
F0.21881271247654438
s(I0
I198
tp1852
F-3.6251054412103785
s(I1
I200
tp1853
F1.1811945922401146
s(I111
I200
tp1854
F-0.2356112584205586
s(I96
I202
tp1855
F-0.464668967805969
s(I25
I194
tp1856
F-0.15386030303123893
s(I120
I192
tp1857
F0.2842352938955793
s(I49
I196
tp1858
F-0.018896293344721475
s(I50
I202
tp1859
F-0.2734201046391364
s(I197
I393
tp1860
F-0.1
s(I198
I265
tp1861
F-0.1
s(I74
I196
tp1862
F-0.023436716710219917
s(I202
I273
tp1863
F-0.1
s(I3
I192
tp1864
F0.2232146576090681
s(I119
I194
tp1865
F3.0647282046206463
s(I28
I200
tp1866
F-0.17153258384854211
s(I176
I193
tp1867
F-1.1725806382558868
s(I196
I311
tp1868
F0.0
s(I192
I263
tp1869
F0.0
s(I199
I298
tp1870
F0.0
s(I201
I223
tp1871
F-0.1
s(I202
I215
tp1872
F0.0
s(I198
I327
tp1873
F-0.1
s(I130
I197
tp1874
F-0.5414888355637214
s(I81
I196
tp1875
F-0.05552036186183928
s(I82
I202
tp1876
F-0.777553847594504
s(I193
I312
tp1877
F-0.1
s(I106
I196
tp1878
F-0.07579283853468553
s(I14
I197
tp1879
F-1.568102750052945
s(I200
I342
tp1880
F-0.1
s(I39
I199
tp1881
F-0.34027510177890646
s(I202
I327
tp1882
F0.0
s(I203
I351
tp1883
F-0.1
s(I192
I380
tp1884
F-0.1
s(I109
I202
tp1885
F-0.2528185564518338
s(I1
I193
tp1886
F-0.24853896706124418
s(I165
I200
tp1887
F0.5018932668881139
s(I96
I193
tp1888
F1.0037363252391314
s(I25
I203
tp1889
F0.8327584676141222
s(I190
I192
tp1890
F-0.15109035060136872
s(I120
I199
tp1891
F0.7585446581703844
s(I194
I328
tp1892
F0.0
s(I50
I197
tp1893
F-2.4318741705655134
s(I198
I256
tp1894
F0.0
s(I143
I202
tp1895
F2.0090790802953413
s(I201
I394
tp1896
F0.0
s(I202
I280
tp1897
F-0.1
s(I3
I201
tp1898
F0.30953528743474545
s(I152
I194
tp1899
F0.3936318191484296
s(I202
I352
tp1900
F0.0
s(I192
I286
tp1901
F0.0
s(I28
I199
tp1902
F0.030772217315581312
s(I196
I318
tp1903
F-0.1
s(I192
I337
tp1904
F-0.1
s(I202
I222
tp1905
F-0.1
s(I202
I363
tp1906
F0.0
s(I203
I363
tp1907
F0.0
s(I82
I197
tp1908
F-0.6134096614196721
s(I199
I257
tp1909
F-0.1
s(I193
I305
tp1910
F0.0
s(I85
I200
tp1911
F-0.19805063770797607
s(I196
I333
tp1912
F-0.1
s(I197
I345
tp1913
F-0.1
s(I179
I194
tp1914
F2.492032393199312
s(I200
I349
tp1915
F0.0
s(I110
I192
tp1916
F0.292693621504897
s(I202
I240
tp1917
F0.0
s(I195
I304
tp1918
F-0.1
s(I196
I377
tp1919
F-0.1
s(I196
I329
tp1920
F-0.1
s(I133
I194
tp1921
F0.1519994840522903
s(I63
I202
tp1922
F-0.08728959312131755
s(I197
I373
tp1923
F-0.1
s(I192
I338
tp1924
F0.0
s(I194
I382
tp1925
F0.0
s(I72
I194
tp1926
F1.1663568309467833
s(I109
I195
tp1927
F-0.6778315531098881
s(I201
I290
tp1928
F-0.1
s(I2
I200
tp1929
F4.458771557684511
s(I196
I339
tp1930
F0.0
s(I26
I194
tp1931
F-2.2734855631415556
s(I190
I203
tp1932
F-0.4985269021709451
s(I192
I230
tp1933
F0.0
s(I121
I192
tp1934
F0.17027535599398375
s(I194
I323
tp1935
F-0.1
s(I195
I339
tp1936
F-0.1
s(I198
I379
tp1937
F0.0
s(I199
I395
tp1938
F-0.1
s(I128
I195
tp1939
F0.48030391613449736
s(I198
I286
tp1940
F0.0
s(I197
I355
tp1941
F-0.1
s(I193
I224
tp1942
F0.0
s(I4
I192
tp1943
F0.22071713038651714
s(I152
I201
tp1944
F0.4889421238609265
s(I99
I194
tp1945
F0.3667049804947172
s(I194
I238
tp1946
F0.0
s(I192
I277
tp1947
F-0.1
s(I197
I336
tp1948
F-0.1
s(I29
I200
tp1949
F1.392260722233047
s(I177
I199
tp1950
F0.5083694381908826
s(I196
I293
tp1951
F-0.1
s(I124
I202
tp1952
F-0.21085314534463467
s(I53
I194
tp1953
F-0.14623185245119974
s(I202
I217
tp1954
F-0.1
s(I203
I221
tp1955
F-0.1
s(I195
I389
tp1956
F-0.1
s(I201
I241
tp1957
F-0.1
s(I7
I202
tp1958
F-0.7567693941761552
s(I155
I197
tp1959
F1.105540272575573
s(I193
I266
tp1960
F0.0
s(I194
I387
tp1961
F0.0
s(I192
I261
tp1962
F0.0
s(I197
I322
tp1963
F0.0
s(I179
I203
tp1964
F-0.7742899046977142
s(I200
I324
tp1965
F-0.1
s(I110
I203
tp1966
F-0.5213304519141634
s(I133
I203
tp1967
F-0.3095311771305766
s(I134
I203
tp1968
F-0.3783491001963161
s(I200
I314
tp1969
F0.0
s(I48
I195
tp1970
F-1.058928428420274
s(I194
I299
tp1971
F-0.1
s(I72
I201
tp1972
F-1.029865545595339
s(I200
I271
tp1973
F-0.1
s(I201
I299
tp1974
F-0.1
s(I2
I195
tp1975
F1.1467598100765082
s(I195
I318
tp1976
F-0.1
s(I97
I199
tp1977
F-0.17116003569261473
s(I200
I260
tp1978
F0.0
s(I27
I201
tp1979
F-0.3704516489390152
s(I192
I253
tp1980
F0.0
s(I121
I201
tp1981
F0.08081526440208767
s(I194
I346
tp1982
F0.0
s(I195
I344
tp1983
F-0.1
s(I198
I370
tp1984
F-0.1
s(I199
I384
tp1985
F0.0
s(I75
I197
tp1986
F0.07459648301600959
s(I203
I392
tp1987
F0.0
s(I200
I238
tp1988
F0.0
s(I5
I199
tp1989
F-1.9289651954698614
s(I153
I198
tp1990
F0.06838985457293885
s(I99
I203
tp1991
F0.1008375264062616
s(I192
I364
tp1992
F0.0
s(I29
I193
tp1993
F0.790465674854218
s(I200
I227
tp1994
F0.0
s(I178
I198
tp1995
F-0.5650520822979761
s(I124
I193
tp1996
F-0.13163806234213363
s(I197
I245
tp1997
F0.0
s(I53
I203
tp1998
F0.4584842363315877
s(I54
I203
tp1999
F-0.26449599236765725
s(I203
I210
tp2000
F0.0
s(I203
I281
tp2001
F-0.1
s(I131
I196
tp2002
F-0.07321598784030123
s(I202
I340
tp2003
F0.0
s(I7
I195
tp2004
F-0.10296941295527774
s(I203
I384
tp2005
F0.0
s(I156
I196
tp2006
F-0.11018083679577355
s(I107
I197
tp2007
F-0.6588640604954071
s(I16
I201
tp2008
F-0.3114662367547538
s(I180
I194
tp2009
F-1.7387377471226688
s(I200
I331
tp2010
F0.0
s(I201
I323
tp2011
F-0.1
s(I19
I196
tp2012
F-0.040336723579271525
s(I200
I215
tp2013
F-0.1
s(I134
I194
tp2014
F0.393019009426997
s(I194
I290
tp2015
F-0.1
s(I158
I196
tp2016
F-0.16974064329178096
s(I73
I198
tp2017
F-0.03563068724959096
s(I201
I300
tp2018
F0.0
s(I183
I196
tp2019
F-0.08874375050255452
s(I196
I301
tp2020
F0.0
s(I98
I198
tp2021
F0.7540914615000478
s(I192
I244
tp2022
F-0.1
s(I193
I250
tp2023
F0.0
s(I122
I192
tp2024
F-0.15526441094703627
s(I194
I341
tp2025
F0.0
s(I195
I321
tp2026
F-0.1
s(I51
I196
tp2027
F-0.1538569750672578
s(I197
I279
tp2028
F0.0
s(I199
I377
tp2029
F-0.1
s(I202
I309
tp2030
F-0.1
s(I76
I196
tp2031
F-0.16316783767314388
s(I149
I197
tp2032
F1.3129773522457038
s(I5
I192
tp2033
F-0.042380594751703075
s(I100
I194
tp2034
F0.05460572092062133
s(I192
I355
tp2035
F0.0
s(I193
I363
tp2036
F-0.1
s(I178
I193
tp2037
F-0.7681439452820913
s(I196
I224
tp2038
F-0.1
s(I125
I198
tp2039
F0.36046546623349546
s(I199
I270
tp2040
F-0.1
s(I54
I194
tp2041
F-0.3397691932239617
s(I203
I286
tp2042
F0.0
s(I196
I266
tp2043
F-0.1
s(I132
I197
tp2044
F-0.0879726852979529
s(I78
I196
tp2045
F-0.048704694162732015
s(I156
I195
tp2046
F-0.39476736652903566
s(I157
I203
tp2047
F-0.22629236821257523
s(I103
I196
tp2048
F-0.05711089199445581
s(I203
I280
tp2049
F-0.1
s(I197
I308
tp2050
F0.0
s(I16
I192
tp2051
F0.23281195815438022
s(I180
I201
tp2052
F-0.743556757799462
s(I181
I197
tp2053
F0.3970757982609498
s(I201
I324
tp2054
F0.0
s(I195
I391
tp2055
F0.0
s(I20
I197
tp2056
F-1.5378931748481497
s(I193
I303
tp2057
F-0.1
s(I134
I197
tp2058
F0.7135528254342414
s(I135
I201
tp2059
F-0.36692265359374027
s(I194
I317
tp2060
F0.0
s(I202
I375
tp2061
F-0.1
s(I159
I199
tp2062
F-0.5155720826118066
s(I98
I193
tp2063
F-1.7274610288543293
s(I23
I201
tp2064
F-2.993484212146148
s(I198
I274
tp2065
F0.0
s(I27
I199
tp2066
F0.618242238110524
s(I193
I243
tp2067
F0.0
s(I122
I203
tp2068
F-1.2684315198482847
s(I123
I203
tp2069
F-0.15573147388681313
s(I195
I326
tp2070
F-0.1
s(I52
I197
tp2071
F-0.3192920064770513
s(I198
I364
tp2072
F0.0
s(I199
I374
tp2073
F-0.1
s(I146
I203
tp2074
F-1.7726942586168932
s(I195
I362
tp2075
F-0.1
s(I76
I195
tp2076
F-0.1051610483430415
s(I77
I203
tp2077
F-0.22573420330387048
s(I5
I201
tp2078
F-0.33008766166621606
s(I6
I201
tp2079
F0.8657340207800905
s(I100
I201
tp2080
F-0.1469004275986307
s(I101
I197
tp2081
F-0.6211400806299913
s(I193
I364
tp2082
F0.0
s(I30
I195
tp2083
F0.048922314853298315
s(I196
I274
tp2084
F0.0
s(I196
I239
tp2085
F-0.1
s(I197
I231
tp2086
F-0.1
s(I197
I278
tp2087
F0.0
s(I196
I254
tp2088
F-0.1
s(I54
I197
tp2089
F0.24840598146700787
s(I55
I201
tp2090
F0.027262505217374822
s(I203
I279
tp2091
F0.0
s(I79
I199
tp2092
F-0.05789104816267464
s(I193
I285
tp2093
F-0.1
s(I157
I196
tp2094
F-0.1306978297029458
s(I195
I250
tp2095
F-0.1
s(I16
I199
tp2096
F-0.289813445006902
s(I200
I377
tp2097
F0.0
s(I201
I333
tp2098
F0.0
s(I112
I203
tp2099
F-0.09199843000916423
s(I195
I305
tp2100
F0.0
s(I41
I193
tp2101
F1.3218943241814634
s(I135
I198
tp2102
F0.47606991532204507
s(I200
I332
tp2103
F-0.1
s(I66
I203
tp2104
F-0.23352119163982588
s(I194
I278
tp2105
F0.0
s(I192
I313
tp2106
F-0.1
s(I147
I195
tp2107
F-1.1202664497833834
s(I23
I198
tp2108
F2.1058848822990965
s(I193
I244
tp2109
F-0.1
s(I194
I250
tp2110
F0.0
s(I123
I192
tp2111
F0.13492782586925411
s(I195
I335
tp2112
F0.0
s(I198
I359
tp2113
F-0.1
s(I199
I367
tp2114
F0.0
s(I146
I194
tp2115
F-0.29284387162659753
s(I202
I295
tp2116
F0.0
s(I77
I196
tp2117
F-0.03097092048242316
s(I6
I192
tp2118
F0.13161236585349806
s(I192
I369
tp2119
F0.0
s(I193
I357
tp2120
F-0.1
s(I174
I193
tp2121
F1.141123346524306
s(I30
I202
tp2122
F0.23513524411970693
s(I196
I281
tp2123
F0.0
s(I196
I214
tp2124
F0.0
s(I197
I224
tp2125
F-0.1
s(I198
I246
tp2126
F-0.1
s(I199
I252
tp2127
F0.0
s(I201
I229
tp2128
F-0.1
s(I55
I198
tp2129
F-0.4359894156740483
s(I203
I249
tp2130
F-0.1
s(I203
I268
tp2131
F0.0
s(I132
I203
tp2132
F-0.41053213859728543
s(I199
I324
tp2133
F-0.1
s(I193
I278
tp2134
F0.0
s(I202
I267
tp2135
F0.0
s(I202
I392
tp2136
F0.0
s(I197
I294
tp2137
F-0.1
s(I17
I192
tp2138
F0.0052204439718664735
s(I200
I352
tp2139
F0.0
s(I201
I374
tp2140
F-0.1
s(I112
I194
tp2141
F0.29900531887467674
s(I20
I203
tp2142
F1.3824164847924352
s(I21
I195
tp2143
F1.5251274132928203
s(I41
I202
tp2144
F-0.20154002856301784
s(I202
I334
tp2145
F0.0
s(I66
I194
tp2146
F-0.28751616688234727
s(I194
I271
tp2147
F-0.1
s(I203
I340
tp2148
F0.0
s(I147
I200
tp2149
F-0.46789463641870815
s(I168
I195
tp2150
F-3.2645608410407525
s(I193
I379
tp2151
F0.0
s(I199
I291
tp2152
F0.0
s(I192
I217
tp2153
F-0.1
s(I193
I205
tp2154
F0.3382023866073256
s(I194
I245
tp2155
F-0.1
s(I195
I225
tp2156
F0.0
s(I195
I308
tp2157
F0.0
s(I52
I203
tp2158
F0.20437452244281065
s(I198
I350
tp2159
F0.0
s(I199
I356
tp2160
F0.0
s(I202
I302
tp2161
F-0.1
s(I150
I198
tp2162
F0.6638117471744861
s(I192
I328
tp2163
F-0.1
s(I193
I382
tp2164
F-0.1
s(I174
I200
tp2165
F0.5524774432037074
s(I31
I193
tp2166
F-0.10249615139787771
s(I196
I221
tp2167
F-0.1
s(I197
I233
tp2168
F-0.1
s(I126
I193
tp2169
F-0.25846453163954847
s(I199
I245
tp2170
F-0.1
s(I201
I238
tp2171
F-0.1
s(I202
I228
tp2172
F0.0
s(I203
I254
tp2173
F0.0
s(I203
I261
tp2174
F-0.1
s(I193
I391
tp2175
F-0.1
s(I88
I195
tp2176
F-0.4524493075992068
s(I197
I303
tp2177
F-0.1
s(I18
I201
tp2178
F1.261349491830708
s(I182
I198
tp2179
F-1.7117022686653507
s(I202
I251
tp2180
F-0.1
s(I22
I202
tp2181
F0.9014811209089387
s(I42
I195
tp2182
F0.5464476733488902
s(I197
I382
tp2183
F-0.1
s(I194
I262
tp2184
F-0.1
s(I144
I196
tp2185
F-0.19038113480666613
s(I145
I202
tp2186
F-0.3787935803539116
s(I148
I193
tp2187
F-0.22513644784495526
s(I168
I202
tp2188
F-0.5154177279725133
s(I45
I199
tp2189
F-2.2071983114320792
s(I194
I204
tp2190
F-2.0913261094238615
s(I195
I230
tp2191
F0.0
s(I32
I196
tp2192
F-0.14770784814246862
s(I33
I202
tp2193
F0.021580452342058746
s(I198
I337
tp2194
F-0.1
s(I199
I349
tp2195
F-0.1
s(I198
I273
tp2196
F-0.1
s(I202
I297
tp2197
F0.0
s(I202
I382
tp2198
F0.0
s(I151
I197
tp2199
F-0.027296709316300596
s(I171
I196
tp2200
F-0.113128987897177
s(I194
I233
tp2201
F-0.1
s(I192
I335
tp2202
F0.0
s(I102
I198
tp2203
F0.18572272799239462
s(I11
I200
tp2204
F-0.9358696076650493
s(I175
I195
tp2205
F-0.08307739082437778
s(I196
I271
tp2206
F0.0
s(I197
I210
tp2207
F0.0
s(I126
I200
tp2208
F-0.48721605002023155
s(I199
I242
tp2209
F-0.1
s(I202
I239
tp2210
F-0.1
s(I203
I247
tp2211
F0.0
s(I203
I314
tp2212
F-0.1
s(I64
I196
tp2213
F-0.03255124223814284
s(I65
I202
tp2214
F-0.3280843413453007
s(I137
I197
tp2215
F0.1765890464644039
s(I88
I202
tp2216
F0.06035802294556168
s(I195
I248
tp2217
F-0.1
s(I201
I337
tp2218
F0.0
s(I162
I199
tp2219
F-0.6819868607992141
s(I18
I192
tp2220
F0.1379908983265193
s(I201
I352
tp2221
F0.0
s(I113
I198
tp2222
F-0.6646357236437588
s(I42
I202
tp2223
F0.2880485468626952
s(I43
I200
tp2224
F-0.4213778317224619
s(I46
I199
tp2225
F0.07386855256333716
s(I194
I257
tp2226
F0.0
s(I198
I313
tp2227
F0.0
s(I145
I195
tp2228
F0.35101887688619465
s(I91
I196
tp2229
F0.0061536330810567355
s(I148
I200
tp2230
F-0.00994843816741937
s(I169
I197
tp2231
F0.7481487577487951
s(I116
I196
tp2232
F-0.13990128745639208
s(I8
I197
tp2233
F-1.2964316391957984
s(I45
I192
tp2234
F0.17115327016324733
s(I193
I223
tp2235
F-0.1
s(I195
I239
tp2236
F-0.1
s(I195
I290
tp2237
F-0.1
s(I33
I195
tp2238
F0.272330120977402
s(I70
I200
tp2239
F-0.4558484621052224
s(I193
I300
tp2240
F-0.1
s(I57
I197
tp2241
F0.13127402371260136
s(I151
I194
tp2242
F-0.6013031212390603
s(I172
I197
tp2243
F0.0733510814451412
s(I192
I326
tp2244
F0.0
s(I193
I328
tp2245
F0.0
s(I11
I193
tp2246
F2.778498184303405
s(I175
I200
tp2247
F-0.02503544815687425
s(I160
I202
tp2248
F-0.07656185594106144
s(I197
I219
tp2249
F-0.1
s(I198
I219
tp2250
F0.0
s(I127
I195
tp2251
F-0.22454161579320323
s(I184
I192
tp2252
F0.17410422721784016
s(I40
I197
tp2253
F-0.45202888062870894
s(I203
I307
tp2254
F-0.1
s(I202
I351
tp2255
F0.0
s(I65
I195
tp2256
F-0.5587281019447567
s(I138
I196
tp2257
F-0.1496742730814424
s(I196
I389
tp2258
F0.0
s(I89
I197
tp2259
F-0.6527621235659556
s(I201
I361
tp2260
F0.0
s(I114
I199
tp2261
F-1.2173179333684512
s(I22
I196
tp2262
F-0.08573470169030631
s(I187
I202
tp2263
F0.4689657185912739
s(I43
I193
tp2264
F-0.23612132733989216
s(I202
I268
tp2265
F0.0
s(I200
I223
tp2266
F0.0
s(I47
I196
tp2267
F0.008793825872305379
s(I67
I199
tp2268
F-0.42091690556944594
s(I141
I202
tp2269
F-0.1441098676228812
s(I198
I304
tp2270
F0.0
s(I145
I196
tp2271
F-0.10252262779385385
s(I92
I197
tp2272
F-0.5202304246138636
s(I170
I196
tp2273
F-0.2005909541621177
s(I116
I195
tp2274
F-0.47581505759889037
s(I193
I389
tp2275
F-0.1
s(I9
I194
tp2276
F1.0692017481240794
s(I192
I302
tp2277
F-0.1
s(I193
I208
tp2278
F-0.1
s(I194
I222
tp2279
F-0.1
s(I195
I212
tp2280
F-0.1
s(I194
I269
tp2281
F-0.1
s(I33
I196
tp2282
F0.016680730943532174
s(I34
I202
tp2283
F-0.44173523331316766
s(I70
I195
tp2284
F-0.5368204354279218
s(I199
I339
tp2285
F-0.1
s(I202
I347
tp2286
F0.0
s(I58
I196
tp2287
F-0.04564371670301941
s(I200
I228
tp2288
F-0.1
s(I173
I202
tp2289
F-1.2388728450238902
s(I193
I321
tp2290
F0.0
s(I11
I198
tp2291
F3.6893152331887284
s(I12
I200
tp2292
F0.6589839102990681
s(I160
I193
tp2293
F-0.40701929612952814
s(I201
I250
tp2294
F-0.1
s(I198
I210
tp2295
F0.0
s(I127
I200
tp2296
F-0.8397689742385092
s(I36
I198
tp2297
F-0.8686770352066366
s(I184
I199
tp2298
F-0.24812627833571993
s(I203
I229
tp2299
F-0.1
s(I203
I296
tp2300
F0.0
s(I61
I202
tp2301
F-0.3036636751774363
s(I65
I196
tp2302
F-0.0836457352319712
s(I202
I394
tp2303
F0.0
s(I197
I282
tp2304
F0.0
s(I90
I196
tp2305
F-0.05794839277669761
s(I201
I274
tp2306
F0.0
s(I187
I195
tp2307
F-0.14848281398730803
s(I43
I198
tp2308
F-0.5768962882120398
s(I44
I200
tp2309
F-1.377153843106161
s(I200
I265
tp2310
F0.0
s(I194
I275
tp2311
F-0.1
s(I68
I198
tp2312
F0.1239342564853309
s(I141
I195
tp2313
F0.8858844432189866
s(I198
I299
tp2314
F0.0
s(I93
I202
tp2315
F-0.4788531682232207
s(I193
I232
tp2316
F0.0
s(I196
I350
tp2317
F-0.1
s(I116
I202
tp2318
F0.9107379581544544
s(I117
I196
tp2319
F0.01724466282919873
s(I9
I203
tp2320
F-0.38886026454194506
s(I192
I293
tp2321
F-0.1
s(I193
I234
tp2322
F0.0
s(I195
I221
tp2323
F-0.1
s(I195
I272
tp2324
F0.0
s(I34
I197
tp2325
F0.1756701385674911
s(I199
I275
tp2326
F0.0
s(I71
I200
tp2327
F-1.7371293601092133
s(I202
I322
tp2328
F0.0
s(I203
I336
tp2329
F-0.1
s(I95
I198
tp2330
F-1.340324412514247
s(I199
I286
tp2331
F0.0
s(I192
I391
tp2332
F-0.1
s(I136
I194
tp2333
F0.28202210123880617
s(I173
I195
tp2334
F3.123010723867312
s(I193
I346
tp2335
F-0.1
s(I194
I395
tp2336
F-0.1
s(I12
I199
tp2337
F-0.19873738589709974
s(I196
I356
tp2338
F0.0
s(I197
I370
tp2339
F0.0
s(I197
I205
tp2340
F-2.365346149479014
s(I198
I213
tp2341
F-0.1
s(I199
I217
tp2342
F-0.1
s(I185
I192
tp2343
F-0.34046076992086904
s(I203
I289
tp2344
F0.0
s(I61
I195
tp2345
F-0.6141420881795001
s(I195
I315
tp2346
F0.0
s(I197
I307
tp2347
F0.0
s(I196
I395
tp2348
F0.0
s(I197
I259
tp2349
F0.0
s(I163
I194
tp2350
F-0.0866426310801903
s(I201
I283
tp2351
F0.0
s(I188
I202
tp2352
F0.9142696558531895
s(I44
I199
tp2353
F1.285583646861179
s(I200
I371
tp2354
F-0.1
s(I47
I202
tp2355
F1.9602568407887349
s(I194
I362
tp2356
F0.0
s(I195
I392
tp2357
F-0.1
s(I198
I290
tp2358
F-0.1
s(I56
I194
tp2359
F-0.46091855122904557
s(I93
I195
tp2360
F0.9418713105823193
s(I195
I361
tp2361
F-0.1
s(I196
I366
tp2362
F0.0
s(I10
I194
tp2363
F-0.4002623584066992
s(I194
I208
tp2364
F0.0
s(I203
I383
tp2365
F0.0
s(I195
I281
tp2366
F0.0
s(I192
I383
tp2367
F0.0
s(I71
I193
tp2368
F2.7620087321125864
s(I200
I243
tp2369
F0.0
s(I202
I333
tp2370
F0.0
s(I203
I329
tp2371
F0.0
s(I202
I300
tp2372
F0.0
s(I136
I201
tp2373
F-0.3597710895052817
s(I83
I194
tp2374
F-0.7513245096483185
s(I193
I339
tp2375
F-0.1
s(I13
I200
tp2376
F-0.7153636922344833
s(I161
I199
tp2377
F0.2048036715402695
s(I198
I204
tp2378
F1.7665411383382947
s(I199
I214
tp2379
F-0.1
s(I37
I194
tp2380
F-0.25500092240891936
s(I185
I201
tp2381
F1.8211147919747281
s(I203
I294
tp2382
F0.0
s(I199
I317
tp2383
F0.0
s(I139
I197
tp2384
F-0.31755692990726475
s(I197
I268
tp2385
F0.0
s(I198
I394
tp2386
F0.0
s(I15
I192
tp2387
F0.13826348191267973
s(I163
I203
tp2388
F-0.3364737844508501
s(I201
I284
tp2389
F-0.1
s(I115
I194
tp2390
F-0.1530856974135882
s(I188
I193
tp2391
F-0.37220421067168724
s(I196
I242
tp2392
F0.0
s(I194
I357
tp2393
F0.0
s(I195
I369
tp2394
F-0.1
s(I69
I194
tp2395
F-1.8172641936519032
s(I200
I247
tp2396
F-0.1
s(I198
I293
tp2397
F-0.1
s(I201
I305
tp2398
F-0.1
s(I56
I201
tp2399
F-0.11388305243627782
s(I166
I199
tp2400
F0.22647193374704874
s(I202
I385
tp2401
F0.0
s(I199
I280
tp2402
F-0.1
s(I192
I307
tp2403
F0.0
s(I191
I197
tp2404
F3.907927305039869
s(I200
I279
tp2405
F0.0
s(I195
I286
tp2406
F-0.1
s(I199
I318
tp2407
F-0.1
s(I200
I236
tp2408
F-0.1
s(I129
I201
tp2409
F-0.23578069788687014
s(I203
I334
tp2410
F-0.1
s(I59
I197
tp2411
F-0.8681135164508561
s(I198
I236
tp2412
F-0.1
s(I83
I203
tp2413
F0.2026274153640261
s(I193
I340
tp2414
F-0.1
s(I104
I196
tp2415
F-0.1515804929246239
s(I13
I193
tp2416
F0.5138497915526474
s(I192
I378
tp2417
F0.0
s(I200
I246
tp2418
F0.0
s(I199
I207
tp2419
F0.4338381767718578
s(I37
I203
tp2420
F0.4525193989067791
s(I38
I203
tp2421
F0.41844859400219697
s(I186
I192
tp2422
F0.32566324468057595
s(I200
I282
tp2423
F-0.1
s(I140
I196
tp2424
F-0.17481639098132726
s(I86
I199
tp2425
F-0.07227832412883499
s(I15
I201
tp2426
F0.7590897130911002
s(I0
I201
tp2427
F-0.5324320230459201
s(I164
I194
tp2428
F2.6552394819238274
s(I111
I197
tp2429
F-0.12143264359433938
s(I115
I203
tp2430
F-0.19635268116352816
s(I189
I198
tp2431
F1.2138172706561752
s(I49
I201
tp2432
F0.07943256793551777
s(I195
I374
tp2433
F0.0
s(I69
I203
tp2434
F0.16797268658169848
s(I197
I390
tp2435
F-0.1
s(I142
I196
tp2436
F-0.044286505023374216
s(I192
I388
tp2437
F-0.1
s(I167
I196
tp2438
F-0.03745458487285198
s(I118
I199
tp2439
F0.3994270891404163
s(I192
I266
tp2440
F0.0
s(I191
I194
tp2441
F6.168487226034291
s(I195
I263
tp2442
F0.0
s(I35
I196
tp2443
F-0.060454903747954265
s(I199
I311
tp2444
F0.0
s(I202
I383
tp2445
F-0.1
s(I129
I194
tp2446
F0.26871189821154845
s(I203
I327
tp2447
F-0.1
s(I60
I196
tp2448
F-0.09464381276568484
s(I80
I197
tp2449
F-0.638132968470843
s(I81
I201
tp2450
F-0.14842065234951482
s(I194
I224
tp2451
F0.0
s(I84
I194
tp2452
F0.0007595364949201892
s(I104
I203
tp2453
F-0.30009966789296194
s(I105
I195
tp2454
F0.4864540830290989
s(I196
I337
tp2455
F0.0
s(I195
I242
tp2456
F-0.1
s(I200
I226
tp2457
F-0.1
s(I200
I297
tp2458
F0.0
s(I201
I386
tp2459
F0.0
s(I38
I194
tp2460
F-0.5446318873854383
s(I186
I203
tp2461
F-0.08588684438413978
s(I202
I272
tp2462
F0.0
s(I202
I379
tp2463
F-0.1
s(I62
I196
tp2464
F-0.0982421475616256
s(I140
I195
tp2465
F0.1868716408096261
s(I87
I196
tp2466
F0.04023834627272293
s(I198
I388
tp2467
F0.0
s(I0
I192
tp2468
F0.2486271938280809
s(I164
I201
tp2469
F0.7055737754290864
s(I165
I197
tp2470
F0.06799013328344998
s(I111
I194
tp2471
F0.4650546290287474
s(I24
I198
tp2472
F-2.534682687999512
s(I192
I372
tp2473
F-0.1
s(I49
I194
tp2474
F-0.5220643825532357
s(I194
I279
tp2475
F-0.1
s(I198
I279
tp2476
F-0.1
s(I143
I199
tp2477
F3.470579255998631
s(I202
I279
tp2478
F-0.1
s(I94
I196
tp2479
F0.03422536317742752
s(I119
I196
tp2480
F0.002931147813977036
s(I191
I203
tp2481
F-0.8930053730216684
s(I176
I203
tp2482
F-0.5753490838516374
s(I195
I268
tp2483
F-0.1
s(I192
I262
tp2484
F0.0
s(I199
I300
tp2485
F-0.1
s(I201
I213
tp2486
F-0.1
s(I198
I326
tp2487
F0.0
s(I130
I203
tp2488
F-0.5790862211230564
s(I60
I195
tp2489
F-0.5688046744227068
s(I81
I194
tp2490
F-0.3654631445187955
s(I154
I197
tp2491
F-0.023187883246291157
s(I84
I201
tp2492
F-0.4375242469136969
s(I85
I197
tp2493
F-0.5418904565747991
s(I105
I196
tp2494
F-0.05582207686992482
s(I196
I344
tp2495
F0.0
s(I14
I195
tp2496
F-1.6211638625538882
s(I197
I332
tp2497
F0.0
s(I200
I336
tp2498
F0.0
s(I38
I197
tp2499
F-1.1902030654727753
s(I39
I201
tp2500
F-0.12279167183136784
s(I202
I326
tp2501
F-0.1
s(I63
I199
tp2502
F-0.45422934592503406
s(I203
I348
tp2503
F-0.1
s(I203
I226
tp2504
F-0.1
s(I108
I198
tp2505
F-0.17852992866867926
s(I0
I199
tp2506
F0.8449710168268525
s(I201
I311
tp2507
F-0.1
s(I111
I203
tp2508
F0.0612765782084976
s(I96
I203
tp2509
F-0.12473602499371812
s(I203
I233
tp2510
F-0.1
s(I25
I193
tp2511
F-0.09448976377119649
s(I120
I193
tp2512
F0.6342454232848601
s(I202
I337
tp2513
F-0.1
s(I194
I334
tp2514
F-0.1
s(I50
I203
tp2515
F0.09411561389927418
s(I197
I392
tp2516
F-0.1
s(I198
I270
tp2517
F-0.1
s(I74
I197
tp2518
F-2.242230719558299
s(I202
I286
tp2519
F-0.1
s(I3
I195
tp2520
F0.06825222545197088
s(I192
I280
tp2521
F0.0
s(I28
I201
tp2522
F-0.5229237835135986
s(I176
I194
tp2523
F2.330422712285075
s(I196
I304
tp2524
F0.0
s(I192
I336
tp2525
F0.0
s(I201
I222
tp2526
F-0.1
s(I202
I212
tp2527
F0.0
s(I202
I353
tp2528
F0.0
s(I130
I194
tp2529
F0.05201247662373296
s(I194
I388
tp2530
F0.0
s(I82
I203
tp2531
F-0.01619307696159885
s(I200
I235
tp2532
F0.0
s(I193
I319
tp2533
F0.0
s(I106
I197
tp2534
F-0.270988866686206
s(I14
I202
tp2535
F-0.9548542078603797
s(I200
I254
tp2536
F-0.1
s(I200
I343
tp2537
F-0.1
s(I202
I243
tp2538
F-0.1
s(I39
I198
tp2539
F-1.0622309557654068
s(I196
I376
tp2540
F-0.1
s(I197
I374
tp2541
F-0.1
s(I202
I248
tp2542
F0.0
s(I109
I201
tp2543
F-0.006686155980805017
s(I1
I192
tp2544
F0.06161797551907882
s(I96
I194
tp2545
F0.6210894802210295
s(I200
I393
tp2546
F-0.1
s(I25
I202
tp2547
F-0.7181894853249362
s(I190
I193
tp2548
F-0.5636112233768327
s(I120
I200
tp2549
F-2.3611840598430494
s(I194
I329
tp2550
F-0.1
s(I50
I194
tp2551
F-1.868003617701073
s(I198
I257
tp2552
F0.0
s(I198
I281
tp2553
F0.0
s(I202
I281
tp2554
F-0.1
s(I193
I225
tp2555
F-0.1
s(I3
I200
tp2556
F0.024648568079678735
s(I196
I325
tp2557
F0.0
s(I152
I195
tp2558
F0.8321331282675004
s(I192
I287
tp2559
F-0.1
s(I28
I192
tp2560
F0.05162615078641719
s(I196
I319
tp2561
F-0.1
s(I196
I244
tp2562
F0.0
s(I199
I290
tp2563
F0.0
s(I202
I223
tp2564
F0.0
s(I202
I360
tp2565
F0.0
s(I203
I362
tp2566
F-0.1
s(I82
I194
tp2567
F-0.43159101203554917
s(I193
I304
tp2568
F-0.1
s(I194
I386
tp2569
F-0.1
s(I196
I334
tp2570
F0.0
s(I197
I344
tp2571
F0.0
s(I179
I197
tp2572
F4.070896432781333
s(I200
I350
tp2573
F0.0
s(I110
I193
tp2574
F-0.5431165321339498
s(I133
I193
tp2575
F-0.3538818835999072
s(I72
I195
tp2576
F-1.5982530015226835
s(I109
I194
tp2577
F0.28645246337643254
s(I201
I289
tp2578
F0.0
s(I2
I201
tp2579
F-0.01825539343725736
s(I195
I319
tp2580
F0.0
s(I202
I266
tp2581
F-0.1
s(I26
I195
tp2582
F2.1349454561945307
s(I190
I200
tp2583
F-1.5363118750585518
s(I192
I231
tp2584
F0.0
s(I121
I199
tp2585
F0.16031318423473004
s(I194
I320
tp2586
F-0.1
s(I195
I338
tp2587
F-0.1
s(I192
I311
tp2588
F0.0
s(I199
I394
tp2589
F0.0
s(I128
I196
tp2590
F-0.07456978026720401
s(I202
I256
tp2591
F-0.1
s(I4
I193
tp2592
F0.06907131922499501
s(I152
I202
tp2593
F-0.6784963191216534
s(I99
I197
tp2594
F-0.14546332999846834
s(I192
I278
tp2595
F0.0
s(I29
I199
tp2596
F-0.9295410545097098
s(I177
I198
tp2597
F0.28889145722541926
s(I196
I294
tp2598
F-0.1
s(I124
I203
tp2599
F-0.1213592849047998
s(I53
I193
tp2600
F0.14995309220521888
s(I203
I220
tp2601
F0.0
s(I203
I355
tp2602
F0.0
s(I203
I369
tp2603
F-0.1
s(I202
I250
tp2604
F0.0
s(I7
I197
tp2605
F-0.048839439674529084
s(I155
I196
tp2606
F-0.18248003414413375
s(I193
I265
tp2607
F0.0
s(I196
I250
tp2608
F-0.1
s(I197
I321
tp2609
F-0.1
s(I179
I202
tp2610
F-0.9946909557032939
s(I180
I196
tp2611
F-0.1096328773003855
s(I200
I325
tp2612
F-0.1
s(I110
I200
tp2613
F-0.5411554908127457
s(I202
I380
tp2614
F0.0
s(I133
I202
tp2615
F-0.3212377396714499
s(I134
I200
tp2616
F0.19397662685291303
s(I48
I196
tp2617
F-0.12832163209641193
s(I194
I296
tp2618
F-0.1
s(I158
I194
tp2619
F1.033960020703732
s(I72
I202
tp2620
F-0.7569729060086122
s(I201
I298
tp2621
F-0.1
s(I2
I192
tp2622
F-0.26615127435330077
s(I196
I300
tp2623
F0.0
s(I97
I198
tp2624
F-0.1478100775096092
s(I199
I273
tp2625
F-0.1
s(I26
I202
tp2626
F-0.6153577777124535
s(I27
I200
tp2627
F-0.44047243677682507
s(I192
I254
tp2628
F0.0
s(I121
I200
tp2629
F-0.1395655353184758
s(I122
I198
tp2630
F0.8834997944366308
s(I194
I347
tp2631
F-0.1
s(I195
I347
tp2632
F0.0
s(I201
I317
tp2633
F-0.1
s(I198
I371
tp2634
F0.0
s(I199
I387
tp2635
F-0.1
s(I75
I196
tp2636
F-0.17712340897829765
s(I203
I395
tp2637
F0.0
s(I4
I200
tp2638
F0.3776670566016646
s(I5
I198
tp2639
F4.721943367386643
s(I153
I197
tp2640
F-0.698562678866766
s(I99
I202
tp2641
F-0.26399746640082017
s(I100
I196
tp2642
F-0.13945025453674295
s(I192
I365
tp2643
F0.0
s(I29
I192
tp2644
F-0.04725503046784274
s(I178
I199
tp2645
F-0.5055899289929315
s(I124
I194
tp2646
F-0.24576243826295882
s(I197
I244
tp2647
F-0.1
s(I53
I202
tp2648
F-0.10531347750170737
s(I54
I200
tp2649
F-0.0011516044447160449
s(I203
I213
tp2650
F-0.1
s(I196
I352
tp2651
F-0.1
s(I131
I199
tp2652
F-0.4634966056142989
s(I78
I194
tp2653
F-0.2162275710538968
s(I7
I194
tp2654
F-0.5048968287798324
s(I156
I197
tp2655
F-0.6954949236393121
s(I107
I196
tp2656
F-0.2009072145957547
s(I16
I202
tp2657
F0.3147206461387019
s(I180
I195
tp2658
F-0.9756360148219616
s(I200
I261
tp2659
F-0.1
s(I201
I322
tp2660
F-0.1
s(I19
I199
tp2661
F-0.0477602815156912
s(I193
I296
tp2662
F0.0
s(I201
I383
tp2663
F-0.1
s(I134
I195
tp2664
F-0.0007499194461553589
s(I199
I236
tp2665
F0.0
s(I194
I291
tp2666
F0.0
s(I158
I197
tp2667
F1.5999015025063088
s(I192
I238
tp2668
F0.0
s(I73
I197
tp2669
F-0.7925122085811761
s(I183
I199
tp2670
F0.2692680145023849
s(I98
I199
tp2671
F-1.3834955670006444
s(I27
I193
tp2672
F-0.0329033530698402
s(I192
I245
tp2673
F-0.1
s(I193
I249
tp2674
F0.0
s(I122
I193
tp2675
F-2.1099378427801945
s(I194
I338
tp2676
F0.0
s(I195
I320
tp2677
F0.0
s(I51
I199
tp2678
F0.9196022892633043
s(I198
I362
tp2679
F-0.1
s(I199
I376
tp2680
F0.0
s(I195
I363
tp2681
F-0.1
s(I76
I197
tp2682
F-0.5316863400491073
s(I149
I196
tp2683
F-0.07550885449126266
s(I193
I259
tp2684
F0.0
s(I100
I195
tp2685
F-0.07822485621526398
s(I192
I356
tp2686
F-0.1
s(I193
I362
tp2687
F-0.1
s(I196
I276
tp2688
F-0.1
s(I196
I225
tp2689
F-0.1
s(I125
I197
tp2690
F0.26059798998225764
s(I199
I265
tp2691
F-0.1
s(I54
I195
tp2692
F0.31431405732030493
s(I203
I273
tp2693
F-0.1
s(I132
I198
tp2694
F0.3570372918718803
s(I78
I197
tp2695
F0.1642267856698805
s(I193
I283
tp2696
F0.0
s(I157
I202
tp2697
F0.008963917086460162
s(I103
I199
tp2698
F0.27686117657835196
s(I195
I251
tp2699
F-0.1
s(I16
I193
tp2700
F-0.15446637312572073
s(I180
I202
tp2701
F0.5923479719855441
s(I181
I196
tp2702
F-0.21442001306846795
s(I201
I331
tp2703
F0.0
s(I20
I198
tp2704
F2.4581827589603993
s(I135
I200
tp2705
F0.5444146023541695
s(I194
I314
tp2706
F0.0
s(I159
I198
tp2707
F0.7665765064981672
s(I192
I312
tp2708
F0.0
s(I23
I200
tp2709
F-2.8449372622094535
s(I27
I198
tp2710
F-1.2269037216994871
s(I192
I204
tp2711
F-1.891214377379453
s(I193
I242
tp2712
F-0.1
s(I122
I200
tp2713
F3.8623375674490776
s(I123
I202
tp2714
F-0.37114335713800983
s(I195
I329
tp2715
F-0.1
s(I52
I198
tp2716
F-0.3000151419402676
s(I198
I365
tp2717
F-0.1
s(I199
I369
tp2718
F0.0
s(I146
I200
tp2719
F3.7881979464493805
s(I202
I317
tp2720
F-0.1
s(I77
I202
tp2721
F-0.35639199101593894
s(I5
I200
tp2722
F1.8793100134331056
s(I202
I292
tp2723
F0.0
s(I100
I202
tp2724
F-0.1791947457674962
s(I101
I196
tp2725
F-0.11960419462039332
s(I193
I355
tp2726
F-0.1
s(I30
I192
tp2727
F0.07028210568031476
s(I196
I275
tp2728
F0.0
s(I196
I232
tp2729
F-0.1
s(I197
I230
tp2730
F-0.1
s(I198
I252
tp2731
F-0.1
s(I199
I262
tp2732
F0.0
s(I201
I227
tp2733
F0.0
s(I55
I200
tp2734
F-0.11712707893430815
s(I203
I278
tp2735
F0.0
s(I198
I280
tp2736
F0.0
s(I79
I198
tp2737
F-0.40294116272711894
s(I199
I325
tp2738
F0.0
s(I193
I284
tp2739
F0.0
s(I157
I195
tp2740
F-0.5920788979696295
s(I197
I316
tp2741
F-0.1
s(I200
I378
tp2742
F0.0
s(I201
I332
tp2743
F-0.1
s(I41
I192
tp2744
F0.08596541870517849
s(I135
I193
tp2745
F-0.3924997493236416
s(I66
I200
tp2746
F0.22936342240168567
s(I194
I309
tp2747
F0.0
s(I203
I341
tp2748
F0.0
s(I147
I194
tp2749
F-0.3742093708152858
s(I23
I193
tp2750
F5.562400635734814
s(I200
I205
tp2751
F0.4933365152228032
s(I194
I251
tp2752
F0.0
s(I123
I195
tp2753
F-0.7110922873997976
s(I195
I334
tp2754
F0.0
s(I198
I356
tp2755
F0.0
s(I199
I366
tp2756
F0.0
s(I146
I195
tp2757
F4.583456308395111
s(I197
I287
tp2758
F-0.1
s(I77
I195
tp2759
F0.7907435343211174
s(I6
I193
tp2760
F-2.0136642229978823
s(I171
I201
tp2761
F-1.7635607553761266
s(I203
I381
tp2762
F-0.1
s(I192
I370
tp2763
F-0.1
s(I193
I356
tp2764
F0.0
s(I174
I198
tp2765
F1.207430634346506
s(I30
I203
tp2766
F0.03714650272393328
s(I194
I287
tp2767
F-0.1
s(I196
I215
tp2768
F0.0
s(I197
I239
tp2769
F0.0
s(I198
I247
tp2770
F-0.1
s(I192
I343
tp2771
F0.0
s(I201
I228
tp2772
F-0.1
s(I55
I193
tp2773
F-0.7923617944137772
s(I203
I248
tp2774
F0.0
s(I203
I271
tp2775
F-0.1
s(I203
I343
tp2776
F0.0
s(I199
I255
tp2777
F-0.1
s(I193
I277
tp2778
F0.0
s(I196
I264
tp2779
F-0.1
s(I203
I346
tp2780
F-0.1
s(I197
I293
tp2781
F-0.1
s(I17
I199
tp2782
F0.006866729694403406
s(I200
I353
tp2783
F0.0
s(I201
I373
tp2784
F-0.1
s(I112
I195
tp2785
F-0.6732403533102571
s(I113
I203
tp2786
F-0.5581006431676261
s(I21
I194
tp2787
F-0.5669846661611962
s(I41
I201
tp2788
F-0.08551109889119754
s(I192
I257
tp2789
F-0.1
s(I197
I383
tp2790
F-0.1
s(I66
I195
tp2791
F0.3591120796003605
s(I194
I268
tp2792
F0.0
s(I200
I289
tp2793
F0.0
s(I196
I290
tp2794
F0.0
s(I91
I201
tp2795
F-0.23154867706201293
s(I147
I203
tp2796
F-0.45696673012007066
s(I168
I196
tp2797
F-0.2110168299642758
s(I192
I218
tp2798
F-0.1
s(I193
I204
tp2799
F2.0315208604297843
s(I194
I242
tp2800
F-0.1
s(I195
I224
tp2801
F-0.1
s(I195
I311
tp2802
F0.0
s(I198
I351
tp2803
F-0.1
s(I199
I359
tp2804
F0.0
s(I200
I256
tp2805
F0.0
s(I198
I272
tp2806
F-0.1
s(I193
I370
tp2807
F-0.1
s(I150
I199
tp2808
F-0.07160752005084182
s(I194
I232
tp2809
F0.0
s(I192
I329
tp2810
F0.0
s(I193
I381
tp2811
F-0.1
s(I174
I201
tp2812
F-1.3255323647927941
s(I175
I197
tp2813
F0.45012847056268535
s(I31
I192
tp2814
F0.028873078807421255
s(I196
I222
tp2815
F0.0
s(I197
I232
tp2816
F0.0
s(I126
I198
tp2817
F0.09963956484234338
s(I199
I244
tp2818
F-0.1
s(I201
I237
tp2819
F0.0
s(I202
I229
tp2820
F-0.1
s(I198
I238
tp2821
F0.0
s(I203
I260
tp2822
F-0.1
s(I200
I255
tp2823
F-0.1
s(I137
I195
tp2824
F-0.6193276394163291
s(I200
I244
tp2825
F0.0
s(I88
I196
tp2826
F-0.11141147309670767
s(I197
I302
tp2827
F-0.1
s(I201
I338
tp2828
F0.0
s(I18
I198
tp2829
F-1.547795522350815
s(I182
I199
tp2830
F-0.5719054365882106
s(I198
I373
tp2831
F-0.1
s(I21
I203
tp2832
F0.19735562891186229
s(I22
I203
tp2833
F0.8370321299598534
s(I42
I192
tp2834
F0.14620804523239936
s(I202
I349
tp2835
F-0.1
s(I194
I263
tp2836
F-0.1
s(I196
I326
tp2837
F-0.1
s(I144
I197
tp2838
F-0.5049667830607278
s(I145
I201
tp2839
F-0.04379075267175058
s(I200
I211
tp2840
F0.0
s(I148
I194
tp2841
F-0.39502125643974234
s(I168
I203
tp2842
F-0.3042503820225002
s(I169
I195
tp2843
F0.5147219366551267
s(I45
I198
tp2844
F0.2075716778477104
s(I194
I205
tp2845
F1.3466787300428218
s(I195
I233
tp2846
F0.0
s(I32
I197
tp2847
F-1.3240569253708272
s(I33
I201
tp2848
F0.2172300712080765
s(I192
I270
tp2849
F-0.1
s(I199
I348
tp2850
F-0.1
s(I57
I195
tp2851
F-0.016236364709106263
s(I151
I196
tp2852
F-0.20506750109141653
s(I171
I199
tp2853
F1.1147609513162315
s(I192
I320
tp2854
F-0.1
s(I102
I199
tp2855
F0.38890616289806235
s(I11
I203
tp2856
F1.1472779726749422
s(I175
I194
tp2857
F0.13076815357442131
s(I31
I201
tp2858
F-0.31447784881561536
s(I197
I209
tp2859
F0.0
s(I126
I201
tp2860
F-0.31764260575951314
s(I127
I197
tp2861
F-0.05335690251845246
s(I202
I236
tp2862
F-0.1
s(I203
I246
tp2863
F0.0
s(I203
I317
tp2864
F0.0
s(I202
I350
tp2865
F0.0
s(I64
I197
tp2866
F-0.20070694573906162
s(I65
I201
tp2867
F-0.1377876057979759
s(I137
I196
tp2868
F-0.09428690405375066
s(I200
I390
tp2869
F0.0
s(I88
I203
tp2870
F-0.14422779691449678
s(I89
I195
tp2871
F-0.5554560395400726
s(I162
I196
tp2872
F-0.04583159118953395
s(I18
I193
tp2873
F-3.045241515840962
s(I201
I359
tp2874
F0.0
s(I113
I197
tp2875
F-0.3144384881716155
s(I202
I381
tp2876
F0.0
s(I22
I194
tp2877
F-0.3426045477043662
s(I42
I203
tp2878
F0.4993339643811986
s(I43
I203
tp2879
F0.5979889346605111
s(I200
I222
tp2880
F-0.1
s(I46
I196
tp2881
F0.006585262709361417
s(I202
I374
tp2882
F0.0
s(I67
I193
tp2883
F-0.1811637779336533
s(I198
I318
tp2884
F0.0
s(I145
I194
tp2885
F-0.6121914127876424
s(I91
I199
tp2886
F-0.35825476378968785
s(I148
I201
tp2887
F0.08126465951483478
s(I196
I299
tp2888
F0.0
s(I169
I196
tp2889
F-0.11722425833023527
s(I116
I197
tp2890
F-1.0425494922208585
s(I8
I198
tp2891
F3.7426469485802407
s(I202
I348
tp2892
F-0.1
s(I192
I296
tp2893
F-0.1
s(I193
I222
tp2894
F0.0
s(I195
I238
tp2895
F0.0
s(I195
I293
tp2896
F-0.1
s(I33
I194
tp2897
F0.17472951766346795
s(I197
I254
tp2898
F0.0
s(I70
I201
tp2899
F-0.431683662576862
s(I199
I341
tp2900
F0.0
s(I57
I196
tp2901
F-0.09643904580720535
s(I172
I198
tp2902
F-0.5453956748581471
s(I192
I327
tp2903
F0.0
s(I193
I335
tp2904
F-0.1
s(I11
I192
tp2905
F-0.024730992492191062
s(I175
I203
tp2906
F-0.5584728258918026
s(I160
I203
tp2907
F-0.2105754409163119
s(I196
I204
tp2908
F0.9431329155654041
s(I197
I218
tp2909
F-0.1
s(I198
I216
tp2910
F0.0
s(I127
I194
tp2911
F-0.010045336018719903
s(I184
I193
tp2912
F-0.11955543575907691
s(I40
I198
tp2913
F-0.45553221096007424
s(I201
I369
tp2914
F-0.1
s(I65
I194
tp2915
F-0.04020457806405805
s(I138
I197
tp2916
F0.060990527659410446
s(I202
I261
tp2917
F0.0
s(I196
I390
tp2918
F0.0
s(I89
I196
tp2919
F-0.15874967583721436
s(I201
I360
tp2920
F-0.1
s(I114
I196
tp2921
F0.031907206416042264
s(I22
I197
tp2922
F-0.991671160061049
s(I201
I249
tp2923
F-0.1
s(I43
I192
tp2924
F0.13234967615913346
s(I199
I229
tp2925
F0.0
s(I47
I199
tp2926
F3.63587481048911
s(I67
I198
tp2927
F-0.03499182000782666
s(I141
I201
tp2928
F0.7141705376639
s(I198
I305
tp2929
F0.0
s(I92
I198
tp2930
F-0.2899435774597348
s(I193
I233
tp2931
F-0.1
s(I170
I197
tp2932
F3.540832350139515
s(I9
I193
tp2933
F-1.985378121670007
s(I192
I303
tp2934
F-0.1
s(I193
I215
tp2935
F0.0
s(I194
I223
tp2936
F-0.1
s(I195
I215
tp2937
F-0.1
s(I195
I298
tp2938
F0.0
s(I34
I203
tp2939
F0.2195012042120221
s(I70
I192
tp2940
F0.098010386456187
s(I199
I338
tp2941
F-0.1
s(I202
I344
tp2942
F-0.1
s(I58
I197
tp2943
F-0.30761782646650276
s(I193
I260
tp2944
F0.0
s(I173
I201
tp2945
F2.498615059445686
s(I193
I320
tp2946
F0.0
s(I194
I394
tp2947
F-0.1
s(I12
I201
tp2948
F0.5296249527769383
s(I160
I194
tp2949
F-0.1127991059830706
s(I198
I211
tp2950
F-0.1
s(I127
I203
tp2951
F-0.445063861790193
s(I36
I199
tp2952
F-0.09646920986791037
s(I184
I200
tp2953
F-0.28463413312320346
s(I194
I390
tp2954
F0.0
s(I203
I299
tp2955
F0.0
s(I201
I252
tp2956
F-0.1
s(I61
I201
tp2957
F-0.4747689042720211
s(I197
I281
tp2958
F-0.1
s(I90
I197
tp2959
F0.17867187160603623
s(I201
I368
tp2960
F0.0
s(I201
I273
tp2961
F0.0
s(I187
I194
tp2962
F-0.2705461552205133
s(I44
I201
tp2963
F-0.5661154795409172
s(I201
I243
tp2964
F-0.1
s(I200
I370
tp2965
F-0.1
s(I194
I272
tp2966
F0.0
s(I68
I199
tp2967
F1.2953832562610226
s(I141
I194
tp2968
F-1.9909926437765304
s(I192
I319
tp2969
F-0.1
s(I93
I201
tp2970
F0.7885176789281476
s(I166
I202
tp2971
F0.6105602558608983
s(I116
I203
tp2972
F-0.4372932241026303
s(I117
I195
tp2973
F1.1049436738769436
s(I9
I202
tp2974
F-0.047790952590585294
s(I192
I294
tp2975
F-0.1
s(I194
I214
tp2976
F0.0
s(I195
I220
tp2977
F0.0
s(I195
I275
tp2978
F0.0
s(I34
I194
tp2979
F-0.43086089345092765
s(I71
I203
tp2980
F0.3320935574875028
s(I202
I323
tp2981
F0.0
s(I203
I339
tp2982
F-0.1
s(I95
I193
tp2983
F1.7806359563941743
s(I202
I303
tp2984
F0.0
s(I136
I195
tp2985
F-1.0377451661499268
s(I173
I194
tp2986
F1.651433529198589
s(I193
I345
tp2987
F0.0
s(I12
I192
tp2988
F0.12081125706865674
s(I196
I357
tp2989
F0.0
s(I197
I369
tp2990
F0.0
s(I197
I204
tp2991
F0.3323983613867323
s(I199
I216
tp2992
F0.0
s(I202
I370
tp2993
F-0.1
s(I185
I199
tp2994
F-0.029885229489763594
s(I203
I288
tp2995
F-0.1
s(I61
I194
tp2996
F-0.299568327495522
s(I199
I322
tp2997
F-0.1
s(I86
I202
tp2998
F-0.03421584083298476
s(I194
I280
tp2999
F0.0
s(I163
I197
tp3000
F0.2375166435921238
s(I201
I282
tp3001
F-0.1
s(I188
I203
tp3002
F-0.5121626115908172
s(I44
I192
tp3003
F-0.14342536471026512
s(I196
I241
tp3004
F0.0
s(I194
I363
tp3005
F0.0
s(I195
I395
tp3006
F-0.1
s(I198
I291
tp3007
F-0.1
s(I201
I306
tp3008
F0.0
s(I56
I195
tp3009
F0.15304740326980587
s(I93
I194
tp3010
F-1.6286414841198973
s(I202
I384
tp3011
F0.0
s(I201
I393
tp3012
F0.0
s(I118
I202
tp3013
F0.6044711753921597
s(I10
I195
tp3014
F-0.6506800251514577
s(I194
I209
tp3015
F0.0
s(I195
I280
tp3016
F-0.1
s(I71
I192
tp3017
F-0.11458290792676538
s(I201
I258
tp3018
F-0.1
s(I202
I330
tp3019
F-0.1
s(I203
I328
tp3020
F-0.1
s(I196
I257
tp3021
F0.0
s(I80
I200
tp3022
F-0.06440702183875661
s(I200
I386
tp3023
F0.0
s(I136
I202
tp3024
F-0.0330845959369829
s(I83
I197
tp3025
F-1.0026151538158832
s(I193
I338
tp3026
F-0.1
s(I203
I227
tp3027
F0.0
s(I13
I199
tp3028
F-0.38458629650784026
s(I161
I198
tp3029
F-0.26381316219978945
s(I198
I205
tp3030
F-3.006348514271959
s(I199
I209
tp3031
F-0.1
s(I37
I193
tp3032
F-0.35200853388069014
s(I185
I200
tp3033
F-1.5678608266749592
s(I186
I198
tp3034
F1.45927387717285
s(I196
I248
tp3035
F0.0
s(I200
I281
tp3036
F-0.1
s(I139
I196
tp3037
F-0.16267607396201053
s(I197
I267
tp3038
F-0.1
s(I198
I395
tp3039
F0.0
s(I15
I195
tp3040
F0.6951276490204847
s(I163
I202
tp3041
F0.5085799900056482
s(I164
I196
tp3042
F-0.1657533928438639
s(I115
I197
tp3043
F-0.9449756453284812
s(I188
I194
tp3044
F4.340160466702098
s(I203
I241
tp3045
F-0.1
s(I197
I376
tp3046
F-0.1
s(I194
I354
tp3047
F0.0
s(I195
I368
tp3048
F-0.1
s(I69
I193
tp3049
F-1.6908567138471524
s(I201
I261
tp3050
F-0.1
s(I142
I194
tp3051
F-0.08840095483606829
s(I56
I202
tp3052
F-0.3400103661508907
s(I197
I258
tp3053
F0.0
s(I166
I196
tp3054
F-0.15726323561220884
s(I193
I271
tp3055
F-0.1
s(I10
I202
tp3056
F-0.732219918050483
s(I191
I196
tp3057
F-0.033546603460036295
s(I201
I319
tp3058
F0.0
s(I195
I257
tp3059
F-0.1
s(I199
I313
tp3060
F-0.1
s(I129
I200
tp3061
F0.22593788254009453
s(I203
I321
tp3062
F-0.1
s(I59
I196
tp3063
F-0.17754311047871832
s(I196
I331
tp3064
F0.0
s(I194
I227
tp3065
F0.0
s(I83
I202
tp3066
F-0.8724531636603162
s(I84
I196
tp3067
F-0.006352563695711965
s(I104
I197
tp3068
F-0.7123747515760464
s(I13
I192
tp3069
F0.13322544633891287
s(I195
I243
tp3070
F0.0
s(I192
I256
tp3071
F0.0
s(I199
I206
tp3072
F-2.475097630909921
s(I197
I327
tp3073
F-0.1
s(I37
I202
tp3074
F-0.6018119270960098
s(I38
I200
tp3075
F-0.19997956046049775
s(I186
I193
tp3076
F0.3880592949529693
s(I62
I194
tp3077
F-0.30582259885884444
s(I140
I197
tp3078
F-0.04914535652972568
s(I86
I196
tp3079
F-0.09584957180488402
s(I197
I365
tp3080
F0.0
s(I15
I200
tp3081
F0.6265858414931865
s(I0
I202
tp3082
F-0.3304118529397198
s(I164
I195
tp3083
F0.4981859912717426
s(I111
I196
tp3084
F0.03354182052887483
s(I201
I377
tp3085
F-0.1
s(I115
I202
tp3086
F0.458883688565206
s(I24
I192
tp3087
F0.19546783950156962
s(I189
I197
tp3088
F-0.5357432588826211
s(I49
I200
tp3089
F0.5147826093019547
s(I195
I377
tp3090
F-0.1
s(I69
I202
tp3091
F-0.3433785298079959
s(I197
I389
tp3092
F-0.1
s(I142
I197
tp3093
F-0.11766767870585745
s(I94
I194
tp3094
F0.27390240012851785
s(I167
I199
tp3095
F3.1634589209539916
s(I202
I316
tp3096
F0.0
s(I118
I196
tp3097
F-0.09747557907801181
s(I192
I267
tp3098
F0.0
s(I200
I360
tp3099
F-0.1
s(I203
I390
tp3100
F0.0
s(I195
I262
tp3101
F-0.1
s(I35
I199
tp3102
F-0.5923539548330722
s(I199
I310
tp3103
F0.0
s(I201
I211
tp3104
F0.0
s(I129
I193
tp3105
F-0.018269768545663992
s(I203
I326
tp3106
F0.0
s(I60
I197
tp3107
F-0.3679044770237278
s(I80
I198
tp3108
F-0.28605679984066207
s(I81
I200
tp3109
F-0.009231254042665598
s(I84
I195
tp3110
F-0.24878139901165364
s(I105
I194
tp3111
F0.011198825958641336
s(I196
I338
tp3112
F-0.1
s(I197
I364
tp3113
F-0.1
s(I198
I393
tp3114
F-0.1
s(I38
I195
tp3115
F-0.060353273484340365
s(I186
I200
tp3116
F0.4696109181888291
s(I62
I197
tp3117
F-1.0391845134274456
s(I203
I349
tp3118
F-0.1
s(I87
I199
tp3119
F-0.28111959380890134
s(I198
I389
tp3120
F-0.1
s(I108
I200
tp3121
F0.16964915411113202
s(I0
I193
tp3122
F-0.9848540596461645
s(I164
I202
tp3123
F0.9757997196554742
s(I165
I196
tp3124
F-0.1637402016848809
s(I24
I199
tp3125
F0.7689222483111339
s(I49
I193
tp3126
F-0.1628314799003873
s(I195
I382
tp3127
F0.0
s(I198
I276
tp3128
F0.0
s(I143
I198
tp3129
F-2.175036377945007
s(I202
I276
tp3130
F0.0
s(I94
I197
tp3131
F-0.45732054696443397
s(I119
I199
tp3132
F3.65313372175625
s(I191
I202
tp3133
F1.998120650724457
s(I195
I271
tp3134
F0.0
s(I193
I227
tp3135
F-0.1
s(I192
I351
tp3136
F0.0
s(I201
I212
tp3137
F-0.1
s(I202
I359
tp3138
F0.0
s(I130
I200
tp3139
F-0.13976750593182996
s(I81
I193
tp3140
F0.17302082824313172
s(I154
I194
tp3141
F-0.1488159605730817
s(I84
I202
tp3142
F0.14901684310854468
s(I85
I196
tp3143
F-0.043669381082184974
s(I105
I203
tp3144
F-0.20771519562052737
s(I196
I345
tp3145
F0.0
s(I14
I192
tp3146
F-0.1439384470098804
s(I203
I291
tp3147
F0.0
s(I192
I387
tp3148
F0.0
s(I202
I242
tp3149
F0.0
s(I39
I200
tp3150
F-0.13691288762394965
s(I196
I383
tp3151
F0.0
s(I63
I198
tp3152
F0.047055024035104046
s(I197
I375
tp3153
F-0.1
s(I108
I199
tp3154
F-0.2804843916388366
s(I201
I310
tp3155
F0.0
s(I111
I202
tp3156
F-0.21887728527423098
s(I25
I192
tp3157
F0.20207097903509097
s(I201
I313
tp3158
F-0.1
s(I120
I194
tp3159
F1.2065075736684345
s(I201
I370
tp3160
F-0.1
s(I194
I335
tp3161
F-0.1
s(I50
I200
tp3162
F4.408464729629014
s(I198
I271
tp3163
F0.0
s(I74
I194
tp3164
F-2.0383717287109855
s(I202
I287
tp3165
F-0.1
s(I193
I226
tp3166
F0.0
s(I3
I194
tp3167
F1.363181399373677
s(I196
I324
tp3168
F0.0
s(I192
I281
tp3169
F0.0
s(I28
I202
tp3170
F-0.4591597866736828
s(I176
I195
tp3171
F2.358742666880875
s(I177
I203
tp3172
F-0.21138718015188107
s(I196
I305
tp3173
F0.0
s(I203
I372
tp3174
F0.0
s(I199
I292
tp3175
F0.0
s(I192
I374
tp3176
F-0.1
s(I202
I213
tp3177
F-0.1
s(I202
I366
tp3178
F-0.1
s(I130
I195
tp3179
F-0.2318077931102234
s(I82
I200
tp3180
F-0.20144077280812064
s(I155
I201
tp3181
F0.2582833873117588
s(I193
I318
tp3182
F-0.1
s(I194
I389
tp3183
F-0.1
s(I106
I194
tp3184
F-0.23414795165939697
s(I14
I203
tp3185
F1.3120964471049288
s(I192
I209
tp3186
F0.0
s(I200
I344
tp3187
F-0.1
s(I39
I193
tp3188
F-0.934180774985991
s(I133
I199
tp3189
F-0.6769703469686991
s(I197
I317
tp3190
F-0.1
s(I109
I200
tp3191
F-0.2125480870259264
s(I1
I199
tp3192
F-0.6322800365731445
s(I200
I298
tp3193
F-0.1
s(I192
I271
tp3194
F0.0
s(I96
I195
tp3195
F-2.230914713717816
s(I97
I203
tp3196
F-0.33921473054148676
s(I25
I201
tp3197
F-0.4214551586971468
s(I190
I198
tp3198
F-0.9438893752112335
s(I120
I201
tp3199
F-1.0951131545732364
s(I196
I288
tp3200
F0.0
s(I194
I326
tp3201
F-0.1
s(I50
I195
tp3202
F2.8302628983563416
s(I192
I310
tp3203
F0.0
s(I201
I392
tp3204
F0.0
s(I75
I201
tp3205
F-0.5175693780667986
s(I3
I203
tp3206
F-0.19596740667315315
s(I152
I196
tp3207
F-0.21066317618077834
s(I192
I272
tp3208
F0.0
s(I28
I193
tp3209
F0.010585176967651377
s(I196
I312
tp3210
F-0.1
s(I196
I245
tp3211
F-0.1
s(I192
I211
tp3212
F0.0
s(I53
I199
tp3213
F-0.8326831690014211
s(I202
I220
tp3214
F0.0
s(I202
I361
tp3215
F0.0
s(I203
I365
tp3216
F0.0
s(I200
I275
tp3217
F0.0
s(I202
I342
tp3218
F0.0
s(I82
I195
tp3219
F0.0987116522285943
s(I193
I311
tp3220
F-0.1
s(I196
I335
tp3221
F0.0
s(I107
I201
tp3222
F0.26183878777994374
s(I179
I196
tp3223
F-0.24016219065946828
s(I200
I351
tp3224
F0.0
s(I110
I198
tp3225
F-0.9256260346576832
s(I200
I253
tp3226
F-0.1
s(I133
I192
tp3227
F-0.005533110501703867
s(I199
I315
tp3228
F0.0
s(I200
I242
tp3229
F-0.1
s(I194
I302
tp3230
F-0.1
s(I72
I196
tp3231
F-0.07065329186851768
s(I109
I193
tp3232
F-0.1815545350569071
s(I201
I288
tp3233
F-0.1
s(I2
I198
tp3234
F6.010592046895368
s(I196
I291
tp3235
F-0.1
s(I200
I220
tp3236
F0.0
s(I26
I192
tp3237
F-0.16304198254346264
s(I190
I201
tp3238
F-0.025180688655032073
s(I192
I248
tp3239
F-0.1
s(I121
I198
tp3240
F-0.0897874187700685
s(I194
I321
tp3241
F0.0
s(I194
I308
tp3242
F0.0
s(I198
I377
tp3243
F-0.1
s(I199
I389
tp3244
F0.0
s(I128
I197
tp3245
F0.09792333931027662
s(I202
I257
tp3246
F0.0
s(I200
I241
tp3247
F-0.1
s(I4
I194
tp3248
F-0.44404593731176073
s(I152
I203
tp3249
F-0.3788041409172018
s(I153
I195
tp3250
F0.08683142866844655
s(I99
I196
tp3251
F-0.13269674238261764
s(I200
I251
tp3252
F0.0
s(I192
I279
tp3253
F0.0
s(I29
I198
tp3254
F2.162780468882919
s(I177
I197
tp3255
F-1.4710685860825328
s(I196
I295
tp3256
F-0.1
s(I124
I196
tp3257
F-0.0365987160080204
s(I53
I192
tp3258
F0.1514450662107762
s(I201
I207
tp3259
F0.9904423919703003
s(I203
I223
tp3260
F-0.1
s(I203
I354
tp3261
F0.0
s(I131
I193
tp3262
F-0.3215984687075311
s(I7
I196
tp3263
F-0.03873839188273701
s(I155
I199
tp3264
F-0.07504899256752742
s(I193
I264
tp3265
F0.0
s(I197
I320
tp3266
F0.0
s(I180
I197
tp3267
F-1.7773101086599472
s(I200
I326
tp3268
F-0.1
s(I110
I201
tp3269
F0.2714775135501477
s(I19
I193
tp3270
F-0.3821372743317187
s(I198
I225
tp3271
F0.0
s(I193
I297
tp3272
F0.0
s(I133
I201
tp3273
F0.09069140221568224
s(I134
I201
tp3274
F0.5559607930778946
s(I199
I237
tp3275
F-0.1
s(I48
I197
tp3276
F0.4384248095151544
s(I194
I297
tp3277
F0.0
s(I158
I195
tp3278
F0.05042577272101596
s(I192
I237
tp3279
F0.0
s(I72
I203
tp3280
F-0.09399273558404017
s(I73
I195
tp3281
F0.06263849653225
s(I201
I297
tp3282
F0.0
s(I2
I193
tp3283
F1.363210416507244
s(I183
I201
tp3284
F-1.153203352102442
s(I97
I197
tp3285
F-0.17256566787083877
s(I26
I203
tp3286
F0.888681044965409
s(I27
I203
tp3287
F0.20249263019018135
s(I192
I255
tp3288
F-0.1
s(I193
I231
tp3289
F0.0
s(I122
I199
tp3290
F-1.3462056153138882
s(I194
I344
tp3291
F-0.1
s(I195
I346
tp3292
F-0.1
s(I51
I193
tp3293
F0.4452908878099587
s(I198
I368
tp3294
F-0.1
s(I199
I386
tp3295
F0.0
s(I75
I199
tp3296
F0.5481293549711278
s(I203
I394
tp3297
F-0.1
s(I4
I201
tp3298
F-0.5094195791754947
s(I5
I197
tp3299
F-1.2916609770496472
s(I153
I196
tp3300
F-0.11969258686114966
s(I196
I358
tp3301
F0.0
s(I100
I197
tp3302
F-0.4860372453046808
s(I192
I366
tp3303
F0.0
s(I178
I196
tp3304
F-0.22552819249169923
s(I124
I195
tp3305
F-0.019290076585539523
s(I125
I203
tp3306
F-0.41273782191810104
s(I53
I201
tp3307
F0.09434188650445302
s(I54
I201
tp3308
F-0.10830656983639474
s(I202
I206
tp3309
F-1.4233427020836873
s(I203
I212
tp3310
F0.0
s(I203
I283
tp3311
F0.0
s(I131
I198
tp3312
F-0.46853481434258887
s(I78
I195
tp3313
F0.25701221089848325
s(I156
I198
tp3314
F0.7969471304627754
s(I198
I310
tp3315
F-0.1
s(I103
I201
tp3316
F0.1830032410471165
s(I107
I199
tp3317
F-0.7934221232144141
s(I16
I203
tp3318
F0.4018103123688637
s(I200
I333
tp3319
F0.0
s(I201
I321
tp3320
F-0.1
s(I19
I198
tp3321
F-0.08174552974118586
s(I202
I282
tp3322
F0.0
s(I134
I192
tp3323
F-0.1141690976845043
s(I203
I352
tp3324
F-0.1
s(I194
I288
tp3325
F-0.1
s(I158
I202
tp3326
F-0.09162783039098492
s(I73
I196
tp3327
F-0.15219135762189404
s(I183
I198
tp3328
F0.7949064612652
s(I98
I196
tp3329
F-0.03444654687279789
s(I203
I238
tp3330
F0.0
s(I27
I192
tp3331
F0.1724774128530321
s(I192
I246
tp3332
F0.0
s(I193
I248
tp3333
F0.0
s(I194
I230
tp3334
F-0.1
s(I194
I339
tp3335
F0.0
s(I195
I323
tp3336
F0.0
s(I51
I198
tp3337
F-0.40144773396588324
s(I198
I363
tp3338
F-0.1
s(I199
I379
tp3339
F-0.1
s(I202
I307
tp3340
F-0.1
s(I76
I198
tp3341
F-0.4181931406296714
s(I149
I195
tp3342
F2.028308274857333
s(I192
I357
tp3343
F-0.1
s(I193
I361
tp3344
F-0.1
s(I196
I277
tp3345
F0.0
s(I196
I226
tp3346
F-0.1
s(I125
I196
tp3347
F-0.13343196345526687
s(I198
I250
tp3348
F-0.1
s(I199
I264
tp3349
F-0.1
s(I54
I192
tp3350
F-0.1493819626312493
s(I200
I224
tp3351
F0.0
s(I203
I205
tp3352
F-1.8030077189811946
s(I203
I272
tp3353
F0.0
s(I132
I199
tp3354
F-0.7767328955920919
s(I78
I202
tp3355
F-0.588772517562299
s(I199
I330
tp3356
F0.0
s(I193
I282
tp3357
F0.0
s(I157
I201
tp3358
F-0.27304075227027824
s(I103
I198
tp3359
F-0.3923429085330557
s(I197
I306
tp3360
F-0.1
s(I16
I194
tp3361
F-0.18628539492441173
s(I180
I203
tp3362
F-0.23401974862203145
s(I181
I195
tp3363
F-0.15991018270238494
s(I201
I330
tp3364
F0.0
s(I20
I199
tp3365
F1.6079857044251662
s(I135
I203
tp3366
F-0.24955151361734848
s(I203
I219
tp3367
F0.0
s(I193
I395
tp3368
F0.0
s(I194
I315
tp3369
F-0.1
s(I203
I338
tp3370
F0.0
s(I159
I193
tp3371
F-0.08242571867020006
s(I196
I256
tp3372
F-0.1
s(I23
I203
tp3373
F1.714076689000055
s(I200
I204
tp3374
F-1.8665321193873476
s(I192
I205
tp3375
F-1.9438460274131595
s(I193
I241
tp3376
F-0.1
s(I122
I201
tp3377
F1.9615592735768899
s(I195
I245
tp3378
F-0.1
s(I195
I328
tp3379
F-0.1
s(I52
I199
tp3380
F0.22933387101869607
s(I198
I354
tp3381
F0.0
s(I199
I368
tp3382
F-0.1
s(I146
I201
tp3383
F2.443509090628154
s(I202
I314
tp3384
F0.0
s(I77
I201
tp3385
F0.3448095874918852
s(I150
I202
tp3386
F-0.49786568773991435
s(I100
I203
tp3387
F-0.16593217137274638
s(I101
I195
tp3388
F0.8980278772407028
s(I193
I354
tp3389
F0.0
s(I30
I193
tp3390
F-0.4831003381502157
s(I194
I286
tp3391
F0.0
s(I196
I233
tp3392
F0.0
s(I197
I229
tp3393
F-0.1
s(I198
I253
tp3394
F0.0
s(I192
I342
tp3395
F0.0
s(I201
I226
tp3396
F-0.1
s(I55
I203
tp3397
F-0.22423697147861718
s(I203
I265
tp3398
F0.0
s(I79
I193
tp3399
F-0.5151055402486822
s(I200
I273
tp3400
F-0.1
s(I193
I275
tp3401
F0.0
s(I157
I194
tp3402
F-0.19543177571275103
s(I197
I315
tp3403
F0.0
s(I200
I379
tp3404
F0.0
s(I182
I202
tp3405
F-0.3435534210541918
s(I202
I253
tp3406
F0.0
s(I41
I199
tp3407
F0.25312257907349944
s(I135
I192
tp3408
F0.027442585511564418
s(I66
I201
tp3409
F0.0031869324756555015
s(I194
I306
tp3410
F-0.1
s(I200
I234
tp3411
F0.0
s(I144
I200
tp3412
F-1.617013898933569
s(I192
I395
tp3413
F0.0
s(I147
I197
tp3414
F-0.3739221786125046
s(I23
I192
tp3415
F-0.35253876817489666
s(I200
I310
tp3416
F0.0
s(I194
I248
tp3417
F0.0
s(I123
I194
tp3418
F0.15778144759985627
s(I32
I200
tp3419
F0.19440551579488108
s(I198
I357
tp3420
F0.0
s(I199
I361
tp3421
F0.0
s(I146
I192
tp3422
F-0.2580945302652494
s(I202
I293
tp3423
F-0.1
s(I77
I194
tp3424
F-0.09552541554920396
s(I196
I323
tp3425
F-0.1
s(I6
I198
tp3426
F-3.0893971610827933
s(I171
I200
tp3427
F-0.03547108584374692
s(I194
I235
tp3428
F0.0
s(I192
I371
tp3429
F0.0
s(I102
I202
tp3430
F-0.37416677008536453
s(I174
I199
tp3431
F0.9025393787393562
s(I30
I200
tp3432
F-0.3679251686457258
s(I196
I283
tp3433
F-0.1
s(I196
I208
tp3434
F0.0
s(I197
I238
tp3435
F-0.1
s(I198
I244
tp3436
F-0.1
s(I199
I254
tp3437
F0.0
s(I201
I235
tp3438
F-0.1
s(I55
I192
tp3439
F0.05464287510303083
s(I203
I251
tp3440
F-0.1
s(I203
I270
tp3441
F0.0
s(I64
I200
tp3442
F0.20354631303069703
s(I193
I276
tp3443
F0.0
s(I197
I292
tp3444
F-0.1
s(I201
I339
tp3445
F0.0
s(I17
I198
tp3446
F3.491711077872572
s(I197
I252
tp3447
F-0.1
s(I201
I372
tp3448
F-0.1
s(I112
I196
tp3449
F-0.11894697176016546
s(I113
I202
tp3450
F-0.027307566245671138
s(I21
I193
tp3451
F-3.2851562544016057
s(I41
I200
tp3452
F-0.815841790121399
s(I42
I198
tp3453
F-0.7384837012077117
s(I66
I192
tp3454
F0.01286359532169368
s(I193
I258
tp3455
F0.0
s(I91
I200
tp3456
F-0.07389634462087673
s(I147
I202
tp3457
F-0.46341473719088244
s(I148
I196
tp3458
F-0.18622798327000764
s(I168
I197
tp3459
F-0.6218965550931423
s(I192
I219
tp3460
F0.0
s(I194
I243
tp3461
F-0.1
s(I195
I227
tp3462
F-0.1
s(I195
I310
tp3463
F-0.1
s(I192
I269
tp3464
F-0.1
s(I199
I358
tp3465
F0.0
s(I198
I329
tp3466
F0.0
s(I150
I196
tp3467
F-0.18618083892018308
s(I171
I193
tp3468
F1.4013153654063926
s(I192
I330
tp3469
F0.0
s(I193
I380
tp3470
F0.0
s(I200
I276
tp3471
F-0.1
s(I175
I196
tp3472
F-0.12734779617508207
s(I31
I195
tp3473
F-0.056396816142794466
s(I196
I223
tp3474
F0.0
s(I197
I215
tp3475
F-0.1
s(I126
I199
tp3476
F0.19182320873089861
s(I199
I247
tp3477
F0.0
s(I201
I236
tp3478
F-0.1
s(I202
I226
tp3479
F-0.1
s(I203
I240
tp3480
F0.0
s(I203
I263
tp3481
F-0.1
s(I201
I263
tp3482
F-0.1
s(I197
I334
tp3483
F-0.1
s(I137
I194
tp3484
F1.2629066675072904
s(I200
I389
tp3485
F-0.1
s(I88
I197
tp3486
F-0.483406980848715
s(I197
I301
tp3487
F0.0
s(I162
I202
tp3488
F0.5399657523569734
s(I18
I199
tp3489
F-0.9385011445732991
s(I182
I196
tp3490
F-0.11931581515416097
s(I113
I195
tp3491
F-0.46099496788690286
s(I21
I202
tp3492
F0.5387245353878364
s(I22
I200
tp3493
F-1.0459885788750447
s(I42
I193
tp3494
F-1.4488874441657424
s(I201
I381
tp3495
F-0.1
s(I200
I221
tp3496
F-0.1
s(I46
I194
tp3497
F0.07286009731367872
s(I194
I260
tp3498
F-0.1
s(I201
I346
tp3499
F-0.1
s(I144
I198
tp3500
F-0.6650291761912954
s(I145
I200
tp3501
F0.48805447881749686
s(I91
I193
tp3502
F0.06519811609480858
s(I201
I379
tp3503
F0.0
s(I148
I195
tp3504
F-0.010443369175466866
s(I196
I298
tp3505
F0.0
s(I169
I194
tp3506
F-0.5090116365994178
s(I8
I192
tp3507
F-0.14755074691263023
s(I45
I197
tp3508
F0.37299012968691686
s(I195
I232
tp3509
F0.0
s(I32
I198
tp3510
F1.73977914257401
s(I33
I200
tp3511
F-0.09656589525903964
s(I197
I255
tp3512
F0.0
s(I198
I343
tp3513
F0.0
s(I199
I351
tp3514
F-0.1
s(I57
I194
tp3515
F-0.35954372445698574
s(I201
I340
tp3516
F-0.1
s(I151
I199
tp3517
F0.09040307254219013
s(I171
I198
tp3518
F0.2996331653448854
s(I172
I200
tp3519
F0.25674462932521663
s(I192
I321
tp3520
F0.0
s(I102
I196
tp3521
F-0.1303769313219286
s(I11
I202
tp3522
F-1.1361627063995807
s(I31
I200
tp3523
F-0.42504971809353354
s(I197
I208
tp3524
F-0.1
s(I198
I230
tp3525
F0.0
s(I127
I196
tp3526
F-0.16573069634304957
s(I202
I237
tp3527
F-0.1
s(I40
I192
tp3528
F0.20692680625379933
s(I203
I316
tp3529
F0.0
s(I196
I375
tp3530
F0.0
s(I64
I198
tp3531
F0.16941478072472416
s(I65
I200
tp3532
F-0.327727187788982
s(I137
I203
tp3533
F-0.4060414704602634
s(I89
I194
tp3534
F0.33926725660224033
s(I162
I197
tp3535
F-0.02155565156924947
s(I201
I358
tp3536
F0.0
s(I113
I196
tp3537
F-0.06817311102019645
s(I114
I202
tp3538
F0.3546261045837056
s(I22
I195
tp3539
F-0.9239934013784284
s(I42
I200
tp3540
F-0.3235923382796518
s(I43
I202
tp3541
F0.2615927036771831
s(I200
I286
tp3542
F0.0
s(I199
I234
tp3543
F0.0
s(I46
I197
tp3544
F-1.0153853510560265
s(I67
I192
tp3545
F0.09461498829704995
s(I198
I319
tp3546
F-0.1
s(I145
I193
tp3547
F-0.655322542079925
s(I91
I198
tp3548
F-0.07862956006514377
s(I92
I200
tp3549
F-0.9765458999721045
s(I201
I380
tp3550
F-0.1
s(I148
I202
tp3551
F-0.47329999488580604
s(I169
I203
tp3552
F-1.1422998413236134
s(I116
I198
tp3553
F-0.8563300406164319
s(I8
I199
tp3554
F-1.0750231247037414
s(I203
I239
tp3555
F-0.1
s(I192
I297
tp3556
F-0.1
s(I193
I221
tp3557
F0.0
s(I195
I209
tp3558
F0.0
s(I195
I292
tp3559
F0.0
s(I33
I193
tp3560
F-0.7315877263346284
s(I198
I334
tp3561
F0.0
s(I199
I340
tp3562
F0.0
s(I57
I203
tp3563
F-0.02709980015573466
s(I193
I261
tp3564
F0.0
s(I172
I199
tp3565
F0.12947065896090734
s(I192
I344
tp3566
F-0.1
s(I193
I334
tp3567
F0.0
s(I11
I195
tp3568
F-1.31050661073187
s(I175
I202
tp3569
F-0.859037856382336
s(I196
I368
tp3570
F-0.1
s(I196
I205
tp3571
F0.45623128821267556
s(I197
I217
tp3572
F0.0
s(I198
I217
tp3573
F0.0
s(I198
I316
tp3574
F0.0
s(I184
I194
tp3575
F0.22309096336255935
s(I40
I199
tp3576
F-0.43030060234661927
s(I203
I309
tp3577
F0.0
s(I200
I259
tp3578
F0.0
s(I65
I193
tp3579
F0.6017276746099247
s(I138
I194
tp3580
F-0.3730132352152189
s(I196
I391
tp3581
F0.0
s(I89
I203
tp3582
F-0.6163549312008175
s(I201
I367
tp3583
F-0.1
s(I114
I197
tp3584
F-0.5157301940336183
s(I43
I195
tp3585
F-0.028340692729919563
s(I200
I369
tp3586
F-0.1
s(I47
I198
tp3587
F0.5258580161593701
s(I67
I201
tp3588
F-0.1157258522956072
s(I141
I200
tp3589
F0.49188114182218073
s(I192
I318
tp3590
F-0.1
s(I202
I343
tp3591
F-0.1
s(I92
I199
tp3592
F1.1675539825536563
s(I202
I294
tp3593
F-0.1
s(I170
I194
tp3594
F0.8676696206532034
s(I9
I192
tp3595
F0.06588756422600257
s(I192
I288
tp3596
F0.0
s(I193
I214
tp3597
F-0.1
s(I194
I220
tp3598
F0.0
s(I195
I214
tp3599
F0.0
s(I195
I301
tp3600
F0.0
s(I34
I200
tp3601
F-0.4438008223780605
s(I70
I193
tp3602
F-0.13495267723278592
s(I199
I333
tp3603
F0.0
s(I202
I345
tp3604
F-0.1
s(I58
I194
tp3605
F-0.5877936137021376
s(I200
I362
tp3606
F-0.1
s(I196
I363
tp3607
F-0.1
s(I173
I200
tp3608
F1.0368649170327287
s(I193
I327
tp3609
F-0.1
s(I203
I370
tp3610
F-0.1
s(I12
I202
tp3611
F0.29861022999117504
s(I160
I195
tp3612
F-0.5547482701846005
s(I161
I203
tp3613
F-0.3732108674574403
s(I198
I208
tp3614
F0.0
s(I127
I202
tp3615
F-0.42293875638028433
s(I36
I192
tp3616
F0.04028575889974883
s(I184
I201
tp3617
F0.1279697248469091
s(I203
I231
tp3618
F0.0
s(I203
I298
tp3619
F0.0
s(I192
I377
tp3620
F-0.1
s(I202
I395
tp3621
F0.0
s(I61
I200
tp3622
F0.04905740631420233
s(I199
I323
tp3623
F-0.1
s(I139
I201
tp3624
F0.22273787216172805
s(I197
I280
tp3625
F-0.1
s(I90
I194
tp3626
F-0.9138694449072357
s(I195
I390
tp3627
F0.0
s(I201
I272
tp3628
F-0.1
s(I187
I197
tp3629
F0.6231473362238894
s(I202
I376
tp3630
F-0.1
s(I44
I202
tp3631
F0.6970436377308881
s(I196
I240
tp3632
F-0.1
s(I196
I284
tp3633
F-0.1
s(I194
I273
tp3634
F0.0
s(I68
I192
tp3635
F-0.10829321327344028
s(I141
I193
tp3636
F-0.9304571606291255
s(I198
I297
tp3637
F-0.1
s(I201
I307
tp3638
F0.0
s(I196
I297
tp3639
F0.0
s(I93
I200
tp3640
F0.28006466120576345
s(I166
I203
tp3641
F-0.3907742632247952
s(I202
I387
tp3642
F-0.1
s(I200
I317
tp3643
F0.0
s(I117
I194
tp3644
F-1.7571229552544982
s(I9
I201
tp3645
F0.4648512753917983
s(I192
I295
tp3646
F-0.1
s(I194
I215
tp3647
F0.0
s(I195
I223
tp3648
F0.0
s(I195
I274
tp3649
F-0.1
s(I34
I195
tp3650
F0.016038339128856858
s(I71
I202
tp3651
F1.932585972123205
s(I202
I320
tp3652
F-0.1
s(I200
I263
tp3653
F0.0
s(I59
I201
tp3654
F-0.2454156031176017
s(I95
I192
tp3655
F-0.22738481931904747
s(I136
I196
tp3656
F-0.14941428784718594
s(I173
I193
tp3657
F-1.6735989786869971
s(I193
I344
tp3658
F-0.1
s(I12
I193
tp3659
F-1.6400159476738088
s(I194
I281
tp3660
F0.0
s(I197
I368
tp3661
F-0.1
s(I199
I219
tp3662
F0.0
s(I37
I199
tp3663
F-0.14632112965108018
s(I185
I198
tp3664
F-1.9393560373599266
s(I198
I233
tp3665
F0.0
s(I61
I193
tp3666
F-0.5362791262096724
s(I200
I230
tp3667
F0.0
s(I200
I280
tp3668
F0.0
s(I86
I203
tp3669
F-0.33493952882206246
s(I197
I257
tp3670
F-0.1
s(I15
I197
tp3671
F0.6888802971968893
s(I163
I196
tp3672
F-0.058289149612770326
s(I201
I281
tp3673
F-0.1
s(I198
I255
tp3674
F-0.1
s(I196
I365
tp3675
F0.0
s(I200
I240
tp3676
F0.0
s(I188
I196
tp3677
F-0.07329984038669317
s(I44
I193
tp3678
F2.200140133453572
s(I197
I377
tp3679
F-0.1
s(I194
I360
tp3680
F0.0
s(I195
I394
tp3681
F-0.1
s(I69
I199
tp3682
F-2.127769291209899
s(I198
I288
tp3683
F0.0
s(I56
I196
tp3684
F-0.04148796966512739
s(I93
I193
tp3685
F-1.6289334979563184
s(I166
I194
tp3686
F-0.3186942294281588
s(I117
I203
tp3687
F-0.24751446557551
s(I118
I203
tp3688
F-0.2354113401308421
s(I10
I192
tp3689
F0.057222413681593184
s(I195
I283
tp3690
F0.0
s(I71
I195
tp3691
F-1.5609661655666873
s(I198
I266
tp3692
F-0.1
s(I202
I331
tp3693
F-0.1
s(I203
I331
tp3694
F0.0
s(I95
I201
tp3695
F-1.1720487467917404
s(I80
I201
tp3696
F-0.08236438516296528
s(I136
I203
tp3697
F-0.1551170092815266
s(I194
I226
tp3698
F-0.1
s(I83
I196
tp3699
F-0.11038654779186576
s(I193
I337
tp3700
F0.0
s(I13
I198
tp3701
F0.642545978033527
s(I161
I197
tp3702
F1.4127985200547117
s(I199
I208
tp3703
F-0.1
s(I200
I311
tp3704
F-0.1
s(I37
I192
tp3705
F-0.0013439367992015426
s(I186
I199
tp3706
F-0.38230279780333476
s(I202
I274
tp3707
F-0.1
s(I139
I199
tp3708
F-0.629722538602396
s(I86
I194
tp3709
F-0.4013891775276154
s(I197
I266
tp3710
F-0.1
s(I198
I392
tp3711
F0.0
s(I15
I194
tp3712
F0.9308278601435894
s(I164
I197
tp3713
F1.6445125654049915
s(I115
I196
tp3714
F-0.10678481439678605
s(I188
I195
tp3715
F1.1184104364983014
s(I189
I203
tp3716
F-0.46410264899257225
s(I194
I355
tp3717
F0.0
s(I195
I371
tp3718
F0.0
s(I69
I192
tp3719
F0.26291017783922155
s(I202
I338
tp3720
F0.0
s(I142
I195
tp3721
F-0.417744421326579
s(I56
I203
tp3722
F0.2882257266880431
s(I166
I197
tp3723
F0.601302889710315
s(I167
I201
tp3724
F-0.167587131744374
s(I118
I194
tp3725
F0.26090176336323756
s(I10
I203
tp3726
F0.23948478768075088
s(I191
I199
tp3727
F3.084469100938973
s(I195
I205
tp3728
F-1.278307955346687
s(I195
I256
tp3729
F-0.1
s(I35
I193
tp3730
F0.8128528179874411
s(I199
I312
tp3731
F-0.1
s(I198
I320
tp3732
F-0.1
s(I203
I320
tp3733
F-0.1
s(I59
I199
tp3734
F-0.465664196657853
s(I197
I338
tp3735
F0.0
s(I80
I192
tp3736
F0.08939736734545145
s(I84
I197
tp3737
F-0.11629053961402773
s(I104
I198
tp3738
F-0.16907758689468952
s(I196
I340
tp3739
F-0.1
s(I197
I354
tp3740
F-0.1
s(I200
I292
tp3741
F0.0
s(I37
I201
tp3742
F-0.07439196173776445
s(I38
I201
tp3743
F0.1960777641490517
s(I62
I195
tp3744
F-0.4350168419186707
s(I140
I198
tp3745
F-0.7775278107125749
s(I86
I197
tp3746
F-0.8867524518048601
s(I87
I201
tp3747
F-0.2587118859921681
s(I198
I387
tp3748
F0.0
s(I15
I203
tp3749
F-0.1849558484304133
s(I0
I203
tp3750
F0.2752039743966835
s(I201
I267
tp3751
F-0.1
s(I111
I199
tp3752
F-0.6947864495590365
s(I24
I193
tp3753
F0.14186390497106677
s(I189
I196
tp3754
F-0.17338086511484702
s(I194
I378
tp3755
F-0.1
s(I195
I376
tp3756
F-0.1
s(I69
I201
tp3757
F0.5758767301610137
s(I197
I388
tp3758
F0.0
s(I142
I202
tp3759
F0.4561384150076435
s(I94
I195
tp3760
F-0.7972422363872932
s(I167
I198
tp3761
F-2.118273668222331
s(I118
I197
tp3762
F-1.0772527573457942
s(I119
I201
tp3763
F-0.90564824481897
s(I195
I265
tp3764
F0.0
s(I197
I248
tp3765
F0.0
s(I35
I198
tp3766
F1.105472162641516
s(I192
I350
tp3767
F0.0
s(I201
I210
tp3768
F0.0
s(I129
I192
tp3769
F-0.04457434829000646
s(I203
I377
tp3770
F0.0
s(I60
I198
tp3771
F-0.33623359323588775
s(I80
I199
tp3772
F-0.6841318929863833
s(I198
I391
tp3773
F-0.1
s(I195
I240
tp3774
F-0.1
s(I193
I291
tp3775
F-0.1
s(I105
I193
tp3776
F0.1213548946993732
s(I196
I321
tp3777
F-0.1
s(I197
I363
tp3778
F-0.1
s(I200
I299
tp3779
F-0.1
s(I38
I192
tp3780
F0.07400375823063199
s(I186
I201
tp3781
F-1.0257536990073437
s(I196
I382
tp3782
F-0.1
s(I197
I337
tp3783
F0.0
s(I62
I202
tp3784
F-0.428414680407529
s(I87
I198
tp3785
F-0.3946858807901434
s(I108
I201
tp3786
F0.09742170965718162
s(I0
I194
tp3787
F1.9676783633681916
s(I164
I203
tp3788
F-0.5250532820764668
s(I165
I195
tp3789
F0.23604199629076567
s(I24
I200
tp3790
F-1.187517274768504
s(I199
I227
tp3791
F-0.1
s(I49
I192
tp3792
F0.28902435104784807
s(I195
I353
tp3793
F-0.1
s(I198
I277
tp3794
F-0.1
s(I143
I193
tp3795
F1.0763345675718998
s(I198
I283
tp3796
F-0.1
s(I202
I277
tp3797
F0.0
s(I94
I202
tp3798
F0.17900132478866074
s(I203
I228
tp3799
F-0.1
s(I119
I198
tp3800
F-2.512249573713973
s(I197
I339
tp3801
F-0.1
s(I195
I270
tp3802
F0.0
s(I199
I302
tp3803
F-0.1
s(I201
I219
tp3804
F-0.1
s(I202
I356
tp3805
F-0.1
s(I130
I201
tp3806
F-0.15123351485476455
s(I81
I192
tp3807
F-0.09229140646195576
s(I154
I195
tp3808
F-0.2646649638899508
s(I84
I203
tp3809
F-0.16902616710465726
s(I85
I195
tp3810
F-0.5425807468930348
s(I105
I202
tp3811
F-0.5447476051715331
s(I196
I346
tp3812
F0.0
s(I14
I193
tp3813
F3.6991442960992074
s(I192
I208
tp3814
F-0.1
s(I200
I338
tp3815
F-0.1
s(I39
I203
tp3816
F0.33240849433045433
s(I63
I193
tp3817
F-0.490665787822405
s(I201
I251
tp3818
F0.0
s(I108
I192
tp3819
F0.11910816773003365
s(I201
I309
tp3820
F0.0
s(I195
I317
tp3821
F-0.1
s(I193
I388
tp3822
F-0.1
s(I25
I199
tp3823
F-0.14121083602811238
s(I120
I195
tp3824
F-2.2284147506981857
s(I194
I332
tp3825
F-0.1
s(I50
I201
tp3826
F1.0459442354591593
s(I192
I309
tp3827
F-0.1
s(I128
I200
tp3828
F-0.12848501947356047
s(I74
I195
tp3829
F2.670318356752055
s(I202
I284
tp3830
F-0.1
s(I3
I197
tp3831
F0.8320674943950114
s(I192
I282
tp3832
F0.0
s(I28
I203
tp3833
F0.5927391834821137
s(I176
I196
tp3834
F-0.12761571337394073
s(I177
I202
tp3835
F-0.12626817993779094
s(I196
I306
tp3836
F-0.1
s(I199
I295
tp3837
F0.0
s(I201
I220
tp3838
F-0.1
s(I202
I210
tp3839
F-0.1
s(I202
I367
tp3840
F0.0
s(I130
I192
tp3841
F-0.030695253631795
s(I82
I201
tp3842
F-0.02713501008272888
s(I154
I202
tp3843
F-0.21610221790335618
s(I155
I200
tp3844
F-0.6562340256722919
s(I193
I317
tp3845
F0.0
s(I106
I195
tp3846
F0.08371235299724793
s(I14
I200
tp3847
F-1.7430622162602194
s(I200
I345
tp3848
F0.0
s(I39
I192
tp3849
F0.10221581736817231
s(I133
I198
tp3850
F0.14885560592378314
s(I200
I213
tp3851
F-0.1
s(I48
I200
tp3852
F-1.3459570071230504
s(I109
I199
tp3853
F-0.2619062042892943
s(I1
I198
tp3854
F0.4702364247466439
s(I96
I196
tp3855
F-0.1522672940031013
s(I97
I202
tp3856
F-0.6193362588619662
s(I25
I200
tp3857
F0.551384555014587
s(I26
I198
tp3858
F2.8493657750044994
s(I190
I199
tp3859
F0.3556162575291766
s(I120
I202
tp3860
F-0.29112902061740664
s(I194
I327
tp3861
F0.0
s(I50
I192
tp3862
F0.14016908530929442
s(I198
I263
tp3863
F-0.1
s(I74
I202
tp3864
F-0.49122353804388386
s(I75
I200
tp3865
F-0.5129434067069403
s(I3
I202
tp3866
F-0.47897073410295615
s(I4
I196
tp3867
F-0.11242930029961729
s(I152
I197
tp3868
F1.1790909526436348
s(I193
I256
tp3869
F0.0
s(I197
I276
tp3870
F0.0
s(I192
I273
tp3871
F0.0
s(I28
I194
tp3872
F0.10861882660715774
s(I177
I195
tp3873
F-0.8234844531066228
s(I196
I313
tp3874
F-0.1
s(I196
I246
tp3875
F-0.1
s(I53
I198
tp3876
F0.6653033100874666
s(I202
I221
tp3877
F0.0
s(I203
I217
tp3878
F-0.1
s(I203
I364
tp3879
F-0.1
s(I201
I315
tp3880
F-0.1
s(I82
I192
tp3881
F0.05404418131718401
s(I155
I193
tp3882
F-0.3560926663280327
s(I193
I310
tp3883
F-0.1
s(I201
I270
tp3884
F0.0
s(I106
I202
tp3885
F-0.6562434566523397
s(I107
I200
tp3886
F0.3798176585260445
s(I179
I199
tp3887
F-1.40002557880031
s(I200
I320
tp3888
F0.0
s(I110
I199
tp3889
F-0.608926426299566
s(I195
I386
tp3890
F0.0
s(I201
I257
tp3891
F0.0
s(I198
I224
tp3892
F-0.1
s(I193
I298
tp3893
F0.0
s(I200
I287
tp3894
F0.0
s(I194
I303
tp3895
F0.0
s(I192
I236
tp3896
F0.0
s(I72
I197
tp3897
F0.7077574146002882
s(I109
I192
tp3898
F0.15962143345972526
s(I198
I296
tp3899
F0.0
s(I2
I199
tp3900
F-2.2393944602086395
s(I97
I195
tp3901
F-0.10002641522373729
s(I26
I193
tp3902
F0.22751952592440783
s(I193
I373
tp3903
F0.0
s(I192
I249
tp3904
F0.0
s(I121
I197
tp3905
F0.1654527790306713
s(I194
I350
tp3906
F0.0
s(I195
I340
tp3907
F-0.1
s(I193
I376
tp3908
F0.0
s(I199
I388
tp3909
F-0.1
s(I128
I198
tp3910
F-0.18646330897737917
s(I75
I193
tp3911
F0.1853702379741587
s(I4
I195
tp3912
F-0.47808481847706674
s(I193
I269
tp3913
F0.0
s(I153
I194
tp3914
F-0.43599535980570336
s(I99
I199
tp3915
F1.0177226831460948
s(I192
I360
tp3916
F-0.1
s(I29
I197
tp3917
F-1.2555586472222928
s(I177
I196
tp3918
F-0.09262579950873934
s(I178
I202
tp3919
F-0.7038135695039718
s(I124
I197
tp3920
F-0.1688728870576297
s(I199
I277
tp3921
F0.0
s(I201
I206
tp3922
F1.1714279647465018
s(I201
I342
tp3923
F-0.1
s(I203
I357
tp3924
F-0.1
s(I131
I192
tp3925
F0.014978565368290645
s(I7
I199
tp3926
F-0.2972474412102583
s(I155
I198
tp3927
F-0.9858586744709079
s(I156
I200
tp3928
F0.45862515325798553
s(I107
I193
tp3929
F-0.8504374007256903
s(I180
I198
tp3930
F0.7833761281761823
s(I200
I327
tp3931
F-0.1
s(I201
I351
tp3932
F0.0
s(I19
I192
tp3933
F0.07779207955036721
s(I133
I200
tp3934
F0.10886850054204857
s(I48
I198
tp3935
F-1.2024696182180716
s(I194
I294
tp3936
F0.0
s(I158
I192
tp3937
F-0.2105070863252909
s(I73
I194
tp3938
F-0.8015315291845652
s(I201
I296
tp3939
F0.0
s(I183
I200
tp3940
F0.5752156145210694
s(I97
I196
tp3941
F-0.058712165894817536
s(I98
I202
tp3942
F-0.36978859917172163
s(I26
I200
tp3943
F4.10654855023741
s(I27
I202
tp3944
F-0.2714278270767672
s(I192
I240
tp3945
F0.0
s(I193
I230
tp3946
F0.0
s(I122
I196
tp3947
F-0.04313154984709044
s(I194
I345
tp3948
F0.0
s(I195
I349
tp3949
F-0.1
s(I51
I192
tp3950
F0.11587326960919493
s(I198
I369
tp3951
F0.0
s(I197
I349
tp3952
F-0.1
s(I75
I198
tp3953
F-0.36603411314565504
s(I76
I200
tp3954
F0.17527259922503857
s(I4
I202
tp3955
F-1.0370118122633805
s(I5
I196
tp3956
F-0.08454154678917158
s(I153
I203
tp3957
F-0.4763020089943079
s(I199
I239
tp3958
F-0.1
s(I100
I198
tp3959
F-0.31973446256989724
s(I192
I367
tp3960
F-0.1
s(I200
I366
tp3961
F0.0
s(I178
I197
tp3962
F0.6951925254570199
s(I196
I228
tp3963
F-0.1
s(I125
I202
tp3964
F-0.150031823998827
s(I53
I200
tp3965
F1.123896289175396
s(I201
I247
tp3966
F0.0
s(I202
I207
tp3967
F0.2657350740377257
s(I203
I215
tp3968
F-0.1
s(I203
I282
tp3969
F-0.1
s(I131
I201
tp3970
F-0.004867551981948924
s(I78
I192
tp3971
F-0.1291558138851853
s(I199
I331
tp3972
F0.0
s(I156
I199
tp3973
F-0.4652376179000958
s(I103
I200
tp3974
F-0.5479919832966985
s(I107
I198
tp3975
F-0.46967595941562407
s(I195
I306
tp3976
F0.0
s(I200
I334
tp3977
F0.0
s(I201
I320
tp3978
F0.0
s(I19
I201
tp3979
F-0.12184765619489855
s(I199
I283
tp3980
F-0.1
s(I134
I193
tp3981
F-0.6532005465376179
s(I194
I289
tp3982
F0.0
s(I158
I203
tp3983
F-0.442258781389208
s(I203
I306
tp3984
F0.0
s(I73
I203
tp3985
F-0.24608578165975625
s(I183
I193
tp3986
F0.9619471556764264
s(I203
I391
tp3987
F0.0
s(I98
I197
tp3988
F-1.0860980636576727
s(I195
I316
tp3989
F-0.1
s(I27
I195
tp3990
F0.019668660439281976
s(I192
I247
tp3991
F-0.1
s(I193
I255
tp3992
F-0.1
s(I194
I231
tp3993
F0.0
s(I194
I336
tp3994
F-0.1
s(I195
I322
tp3995
F-0.1
s(I51
I201
tp3996
F-0.7253910701563541
s(I199
I327
tp3997
F0.0
s(I198
I360
tp3998
F-0.1
s(I196
I330
tp3999
F-0.1
s(I202
I304
tp4000
F-0.1
s(I76
I199
tp4001
F-0.11353230707173984
s(I149
I194
tp4002
F0.5547907029194766
s(I192
I358
tp4003
F0.0
s(I193
I360
tp4004
F0.0
s(I196
I278
tp4005
F0.0
s(I196
I227
tp4006
F0.0
s(I125
I195
tp4007
F1.6161499219768933
s(I198
I251
tp4008
F-0.1
s(I192
I341
tp4009
F-0.1
s(I54
I193
tp4010
F-0.6604930925672434
s(I201
I269
tp4011
F-0.1
s(I203
I204
tp4012
F1.4990187032878632
s(I203
I275
tp4013
F0.0
s(I132
I192
tp4014
F-0.08796719563346173
s(I78
I203
tp4015
F-0.012429471615805446
s(I200
I272
tp4016
F0.0
s(I200
I381
tp4017
F-0.1
s(I193
I281
tp4018
F-0.1
s(I157
I200
tp4019
F-0.1769206709398581
s(I103
I193
tp4020
F-0.48131515302514
s(I197
I305
tp4021
F-0.1
s(I16
I195
tp4022
F-0.6020397331757105
s(I17
I203
tp4023
F1.2610262348855703
s(I181
I194
tp4024
F0.14310197001829544
s(I201
I329
tp4025
F-0.1
s(I197
I381
tp4026
F0.0
s(I20
I192
tp4027
F-0.2757608990427103
s(I135
I202
tp4028
F0.0765930785277914
s(I193
I394
tp4029
F-0.1
s(I194
I312
tp4030
F0.0
s(I195
I388
tp4031
F-0.1
s(I159
I192
tp4032
F0.1599913597058985
s(I192
I394
tp4033
F-0.1
s(I203
I225
tp4034
F-0.1
s(I200
I359
tp4035
F0.0
s(I23
I202
tp4036
F1.687810812597945
s(I192
I206
tp4037
F-2.414621959220662
s(I193
I240
tp4038
F0.0
s(I194
I254
tp4039
F0.0
s(I195
I244
tp4040
F0.0
s(I195
I331
tp4041
F0.0
s(I52
I192
tp4042
F0.24550799669097836
s(I198
I355
tp4043
F0.0
s(I199
I371
tp4044
F0.0
s(I146
I198
tp4045
F0.18380000951360181
s(I200
I315
tp4046
F0.0
s(I77
I200
tp4047
F1.2592853597278717
s(I149
I203
tp4048
F-0.8166571697311986
s(I150
I203
tp4049
F-0.19767158376576716
s(I194
I234
tp4050
F-0.1
s(I101
I194
tp4051
F0.0869895858079328
s(I193
I353
tp4052
F0.0
s(I30
I198
tp4053
F-1.169524994200343
s(I196
I285
tp4054
F0.0
s(I196
I234
tp4055
F0.0
s(I197
I228
tp4056
F-0.1
s(I198
I242
tp4057
F-0.1
s(I199
I256
tp4058
F-0.1
s(I201
I225
tp4059
F0.0
s(I55
I202
tp4060
F-0.3312680212776512
s(I203
I264
tp4061
F-0.1
s(I79
I192
tp4062
F-0.09555018605969037
s(I193
I274
tp4063
F-0.1
s(I157
I193
tp4064
F0.08607545847966927
s(I197
I314
tp4065
F-0.1
s(I192
I215
tp4066
F0.0
s(I181
I203
tp4067
F-0.5110297393366035
s(I182
I203
tp4068
F-0.8085288618290826
s(I198
I375
tp4069
F0.0
s(I196
I249
tp4070
F-0.1
s(I21
I199
tp4071
F-1.5940039219718092
s(I41
I198
tp4072
F0.5670291819548993
s(I135
I195
tp4073
F-0.6068907186738856
s(I66
I198
tp4074
F0.2822304014235386
s(I194
I307
tp4075
F-0.1
s(I200
I249
tp4076
F-0.1
s(I159
I201
tp4077
F-0.6506404629402237
s(I144
I201
tp4078
F-1.9183827195689644
s(I147
I196
tp4079
F-0.17882990296140422
s(I200
I206
tp4080
F-2.958293930785327
s(I23
I195
tp4081
F-2.9775769927732587
s(I192
I232
tp4082
F-0.1
s(I194
I249
tp4083
F-0.1
s(I123
I197
tp4084
F-0.12535964664187843
s(I32
I201
tp4085
F-0.010215225353926357
s(I192
I268
tp4086
F0.0
s(I199
I360
tp4087
F-0.1
s(I200
I216
tp4088
F0.0
s(I146
I193
tp4089
F-2.509829834368413
s(I198
I328
tp4090
F0.0
s(I77
I193
tp4091
F-0.6251947749156415
s(I150
I194
tp4092
F-1.0636838293595308
s(I6
I199
tp4093
F0.21573125995597986
s(I171
I203
tp4094
F-0.1579724854466123
s(I101
I203
tp4095
F-0.2803655111110835
s(I102
I203
tp4096
F-0.0020613126494505437
s(I174
I196
tp4097
F-0.21028851257424436
s(I30
I201
tp4098
F-0.06499260690626403
s(I31
I197
tp4099
F-0.1399531477665291
s(I196
I209
tp4100
F0.0
s(I197
I237
tp4101
F0.0
s(I198
I245
tp4102
F0.0
s(I199
I249
tp4103
F-0.1
s(I201
I234
tp4104
F-0.1
s(I55
I195
tp4105
F0.13861421968270718
s(I203
I250
tp4106
F0.0
s(I203
I257
tp4107
F0.0
s(I79
I201
tp4108
F0.06109621517411699
s(I64
I201
tp4109
F-0.2655663084755668
s(I200
I388
tp4110
F-0.1
s(I197
I291
tp4111
F-0.1
s(I17
I197
tp4112
F-1.2707665211423358
s(I200
I355
tp4113
F0.0
s(I182
I194
tp4114
F2.8054706153706386
s(I112
I197
tp4115
F-0.32372861086777793
s(I113
I201
tp4116
F0.20649062227989737
s(I21
I192
tp4117
F0.03459611401726057
s(I42
I199
tp4118
F-0.9974240660689806
s(I199
I305
tp4119
F0.0
s(I66
I193
tp4120
F-0.8424690074127261
s(I194
I266
tp4121
F0.0
s(I198
I346
tp4122
F0.0
s(I144
I192
tp4123
F0.3648005680545948
s(I91
I203
tp4124
F-0.05347784350163948
s(I148
I197
tp4125
F-0.09974038692808337
s(I168
I198
tp4126
F0.10742673708260406
s(I194
I371
tp4127
F0.0
s(I193
I384
tp4128
F-0.1
s(I45
I203
tp4129
F0.25128569541189283
s(I194
I240
tp4130
F-0.1
s(I194
I380
tp4131
F-0.1
s(I32
I192
tp4132
F0.025043040962387537
s(I197
I240
tp4133
F-0.1
s(I198
I349
tp4134
F0.0
s(I199
I353
tp4135
F0.0
s(I202
I301
tp4136
F0.0
s(I150
I197
tp4137
F-0.5132657243386164
s(I151
I201
tp4138
F-0.160825640146044
s(I171
I192
tp4139
F0.39759348677554684
s(I200
I225
tp4140
F0.0
s(I192
I331
tp4141
F0.0
s(I102
I194
tp4142
F-0.24211846456587288
s(I175
I199
tp4143
F0.143834751898505
s(I31
I194
tp4144
F0.1297430177295041
s(I196
I216
tp4145
F-0.1
s(I197
I214
tp4146
F-0.1
s(I126
I196
tp4147
F-0.14559167237079557
s(I199
I246
tp4148
F0.0
s(I198
I275
tp4149
F-0.1
s(I202
I227
tp4150
F-0.1
s(I203
I243
tp4151
F0.0
s(I203
I262
tp4152
F0.0
s(I196
I374
tp4153
F-0.1
s(I64
I192
tp4154
F0.15415137440031076
s(I137
I193
tp4155
F-0.2950529005790915
s(I88
I198
tp4156
F-0.6610229498135065
s(I197
I300
tp4157
F0.0
s(I162
I203
tp4158
F-0.3199374207044463
s(I18
I196
tp4159
F-0.12842014325008866
s(I182
I197
tp4160
F3.7369430944831716
s(I113
I194
tp4161
F0.43303460080259243
s(I21
I201
tp4162
F1.5453324486064797
s(I22
I201
tp4163
F-0.7054663757049091
s(I199
I235
tp4164
F0.0
s(I46
I195
tp4165
F-0.009729226968499578
s(I194
I261
tp4166
F-0.1
s(I192
I227
tp4167
F0.0
s(I144
I199
tp4168
F0.9857497381392945
s(I197
I243
tp4169
F0.0
s(I91
I192
tp4170
F-0.17654270364996047
s(I193
I235
tp4171
F0.0
s(I169
I193
tp4172
F-1.1053178291574168
s(I8
I193
tp4173
F2.3033493828754983
s(I203
I236
tp4174
F0.0
s(I45
I196
tp4175
F0.02352626033271001
s(I193
I219
tp4176
F-0.1
s(I195
I235
tp4177
F0.0
s(I32
I199
tp4178
F-0.44700308965601804
s(I198
I340
tp4179
F-0.1
s(I199
I350
tp4180
F-0.1
s(I57
I193
tp4181
F-0.23243513771141763
s(I193
I262
tp4182
F0.0
s(I151
I198
tp4183
F0.22207260061411016
s(I172
I201
tp4184
F-0.12068913021354805
s(I192
I322
tp4185
F-0.1
s(I102
I197
tp4186
F-0.14783794443153123
s(I197
I253
tp4187
F0.0
s(I31
I203
tp4188
F0.23603763483262005
s(I197
I223
tp4189
F0.0
s(I198
I231
tp4190
F-0.1
s(I127
I199
tp4191
F0.17293880821007823
s(I202
I234
tp4192
F0.0
s(I40
I193
tp4193
F-0.3106882859945096
s(I203
I319
tp4194
F0.0
s(I64
I199
tp4195
F-0.5074624708301042
s(I137
I202
tp4196
F0.05135760939831634
s(I203
I222
tp4197
F0.0
s(I89
I193
tp4198
F0.32004776676464186
s(I162
I194
tp4199
F-1.4586867348225176
s(I201
I357
tp4200
F0.0
s(I114
I203
tp4201
F0.1416193811774099
s(I22
I192
tp4202
F-0.1625481552171394
s(I42
I201
tp4203
F0.271840071813709
s(I202
I260
tp4204
F0.0
s(I46
I202
tp4205
F0.737631283216612
s(I67
I195
tp4206
F-0.28740241017095247
s(I192
I317
tp4207
F0.0
s(I145
I192
tp4208
F0.13316279372571435
s(I92
I201
tp4209
F-0.36082606519505595
s(I148
I203
tp4210
F-0.6614495481228636
s(I169
I202
tp4211
F-0.8560456564872292
s(I202
I393
tp4212
F0.0
s(I116
I199
tp4213
F1.0945645323152513
s(I8
I200
tp4214
F0.4079314794690647
s(I192
I298
tp4215
F0.0
s(I193
I220
tp4216
F-0.1
s(I197
I273
tp4217
F0.0
s(I195
I208
tp4218
F-0.1
s(I195
I295
tp4219
F0.0
s(I33
I192
tp4220
F-0.11289548419372494
s(I198
I335
tp4221
F-0.1
s(I199
I343
tp4222
F-0.1
s(I57
I202
tp4223
F0.07779297347184835
s(I198
I226
tp4224
F-0.1
s(I172
I192
tp4225
F0.2630785067582581
s(I192
I345
tp4226
F0.0
s(I193
I333
tp4227
F-0.1
s(I11
I194
tp4228
F-1.924200244228169
s(I196
I369
tp4229
F0.0
s(I196
I206
tp4230
F0.4002489762847853
s(I197
I216
tp4231
F0.0
s(I198
I222
tp4232
F-0.1
s(I199
I228
tp4233
F-0.1
s(I184
I195
tp4234
F-0.4292505938427222
s(I40
I200
tp4235
F-0.5380633387923552
s(I203
I308
tp4236
F-0.1
s(I199
I320
tp4237
F0.0
s(I65
I192
tp4238
F0.07855413803908164
s(I138
I195
tp4239
F0.5311815858811215
s(I196
I384
tp4240
F0.0
s(I89
I202
tp4241
F0.2920465716372176
s(I201
I366
tp4242
F0.0
s(I114
I194
tp4243
F-0.5139680464095782
s(I43
I194
tp4244
F-0.016880401123892483
s(I47
I193
tp4245
F3.445082418897909
s(I67
I200
tp4246
F-0.20830494344700282
s(I141
I199
tp4247
F-1.8767628718170193
s(I198
I311
tp4248
F0.0
s(I192
I375
tp4249
F-0.1
s(I92
I192
tp4250
F-0.06666156809437185
s(I193
I390
tp4251
F0.0
s(I192
I379
tp4252
F0.0
s(I202
I386
tp4253
F0.0
s(I170
I195
tp4254
F5.60654856307876
s(I9
I199
tp4255
F0.4690414643856179
s(I192
I289
tp4256
F0.0
s(I193
I213
tp4257
F0.0
s(I194
I221
tp4258
F-0.1
s(I195
I217
tp4259
F-0.1
s(I195
I300
tp4260
F-0.1
s(I34
I201
tp4261
F0.11061953155949195
s(I70
I198
tp4262
F0.06767972724596855
s(I199
I332
tp4263
F-0.1
s(I202
I218
tp4264
F0.0
s(I58
I195
tp4265
F-0.31911320237801283
s(I196
I263
tp4266
F-0.1
s(I173
I199
tp4267
F-1.8923542659464285
s(I193
I326
tp4268
F0.0
s(I12
I203
tp4269
F-0.10777683996073145
s(I160
I196
tp4270
F-0.0664217070017935
s(I161
I202
tp4271
F-0.04508683747161143
s(I198
I209
tp4272
F0.0
s(I199
I221
tp4273
F0.0
s(I36
I193
tp4274
F-0.9303431966622961
s(I184
I202
tp4275
F0.14616826267236765
s(I203
I230
tp4276
F0.0
s(I198
I232
tp4277
F-0.1
s(I61
I199
tp4278
F-0.4977198666731668
s(I197
I325
tp4279
F-0.1
s(I138
I202
tp4280
F0.2371570638941285
s(I139
I200
tp4281
F0.011758692437734738
s(I197
I263
tp4282
F-0.1
s(I90
I195
tp4283
F0.45222334442845336
s(I201
I279
tp4284
F-0.1
s(I196
I364
tp4285
F-0.1
s(I187
I196
tp4286
F-0.1855009038554433
s(I44
I203
tp4287
F0.7360880366730082
s(I197
I378
tp4288
F-0.1
s(I194
I366
tp4289
F0.0
s(I68
I193
tp4290
F1.558371550339124
s(I194
I373
tp4291
F0.0
s(I141
I192
tp4292
F0.3249675891644939
s(I198
I302
tp4293
F0.0
s(I192
I385
tp4294
F-0.1
s(I93
I199
tp4295
F-1.9341771741966134
s(I166
I200
tp4296
F-0.6538363763149174
s(I170
I202
tp4297
F-1.1210528068309105
s(I117
I193
tp4298
F-1.5757436731512129
s(I9
I200
tp4299
F0.24803396902677433
s(I10
I198
tp4300
F0.1359783953401501
s(I194
I212
tp4301
F-0.1
s(I195
I222
tp4302
F-0.1
s(I195
I277
tp4303
F-0.1
s(I34
I192
tp4304
F0.05681883606106215
s(I71
I197
tp4305
F-2.146692737109423
s(I202
I321
tp4306
F-0.1
s(I58
I202
tp4307
F-0.41449888750870445
s(I59
I200
tp4308
F-0.7500531153417525
s(I95
I195
tp4309
F-1.5838772022991063
s(I136
I197
tp4310
F-0.6437027228098005
s(I201
I378
tp4311
F-0.1
s(I173
I192
tp4312
F-0.3258294023405109
s(I193
I351
tp4313
F-0.1
s(I12
I194
tp4314
F1.1031374742847921
s(I196
I359
tp4315
F0.0
s(I161
I195
tp4316
F0.0038165663313814596
s(I199
I218
tp4317
F-0.1
s(I36
I200
tp4318
F0.3904563551061987
s(I37
I198
tp4319
F-0.35632577114594755
s(I185
I197
tp4320
F3.7242684167117655
s(I203
I290
tp4321
F-0.1
s(I61
I192
tp4322
F0.08457824159189312
s(I139
I193
tp4323
F-0.537790393718843
s(I86
I200
tp4324
F-0.4416315929342873
s(I197
I256
tp4325
F0.0
s(I90
I202
tp4326
F0.24970681489115656
s(I15
I196
tp4327
F-0.03292651042526862
s(I163
I199
tp4328
F-0.08686263530266318
s(I201
I280
tp4329
F0.0
s(I188
I197
tp4330
F3.9285589838995474
s(I44
I194
tp4331
F0.29013296273938416
s(I197
I288
tp4332
F0.0
s(I194
I361
tp4333
F0.0
s(I68
I200
tp4334
F-0.8165750830412185
s(I69
I198
tp4335
F1.1873956859264907
s(I195
I366
tp4336
F-0.1
s(I198
I289
tp4337
F-0.1
s(I200
I384
tp4338
F0.0
s(I56
I197
tp4339
F-0.8830089920209385
s(I93
I192
tp4340
F0.17642932931801567
s(I195
I299
tp4341
F0.0
s(I166
I195
tp4342
F-0.5087786969343602
s(I193
I375
tp4343
F-0.1
s(I202
I318
tp4344
F-0.1
s(I117
I202
tp4345
F-0.12240637296994654
s(I118
I200
tp4346
F-1.0499108331366644
s(I10
I193
tp4347
F-0.004419517631915206
s(I200
I358
tp4348
F-0.1
s(I201
I375
tp4349
F-0.1
s(I203
I388
tp4350
F-0.1
s(I195
I282
tp4351
F0.0
s(I202
I259
tp4352
F0.0
s(I192
I259
tp4353
F0.0
s(I71
I194
tp4354
F2.3538269361327417
s(I198
I323
tp4355
F-0.1
s(I203
I330
tp4356
F-0.1
s(I59
I193
tp4357
F0.34602471981559113
s(I95
I200
tp4358
F-1.847410512335371
s(I80
I202
tp4359
F-0.512918405869205
s(I83
I199
tp4360
F-0.8013753793457955
s(I193
I336
tp4361
F-0.1
s(I104
I192
tp4362
F0.0765922733752598
s(I13
I197
tp4363
F-0.3679463434972196
s(I161
I196
tp4364
F-0.19076051301275324
s(I199
I211
tp4365
F0.0
s(I202
I252
tp4366
F-0.1
s(I186
I196
tp4367
F-0.17149253874723044
s(I202
I288
tp4368
F-0.1
s(I200
I395
tp4369
F-0.1
s(I139
I198
tp4370
F-0.3285678623744578
s(I140
I200
tp4371
F-0.5663937995037969
s(I86
I195
tp4372
F-0.8551105275467636
s(I197
I265
tp4373
F-0.1
s(I193
I268
tp4374
F-0.1
s(I192
I376
tp4375
F-0.1
s(I164
I198
tp4376
F-0.6174495765710268
s(I115
I199
tp4377
F-0.30121582442535466
s(I189
I202
tp4378
F0.3470090192596211
s(I194
I352
tp4379
F0.0
s(I195
I370
tp4380
F-0.1
s(I142
I192
tp4381
F0.14747928213716838
s(I199
I204
tp4382
F-1.6354873412993038
s(I167
I200
tp4383
F-1.6839269359669096
s(I118
I195
tp4384
F-0.5170440633317259
s(I10
I200
tp4385
F-0.32868664030789524
s(I191
I198
tp4386
F-3.77535843597859
s(I195
I204
tp4387
F-1.7889681257490218
s(I195
I259
tp4388
F0.0
s(I197
I249
tp4389
F0.0
s(I35
I192
tp4390
F-0.048853222799605786
s(I192
I349
tp4391
F0.0
s(I202
I371
tp4392
F-0.1
s(I203
I323
tp4393
F-0.1
s(I59
I198
tp4394
F-0.04637065498696696
s(I60
I200
tp4395
F0.3402385570224881
s(I80
I193
tp4396
F-0.31128827487952626
s(I200
I232
tp4397
F-0.1
s(I84
I198
tp4398
F-0.037577142284746595
s(I104
I199
tp4399
F-0.611684435213779
s(I196
I341
tp4400
F0.0
s(I197
I353
tp4401
F0.0
s(I200
I293
tp4402
F-0.1
s(I37
I200
tp4403
F-0.20376868069706824
s(I196
I381
tp4404
F-0.1
s(I62
I192
tp4405
F0.09531263224613772
s(I140
I199
tp4406
F0.697103169254175
s(I87
I200
tp4407
F0.4020084206854276
s(I198
I384
tp4408
F0.0
s(I15
I202
tp4409
F0.8839593108548166
s(I201
I266
tp4410
F-0.1
s(I111
I198
tp4411
F-0.16975502063534892
s(I203
I301
tp4412
F-0.1
s(I24
I194
tp4413
F1.775328148873613
s(I189
I195
tp4414
F0.1299499150283754
s(I199
I224
tp4415
F-0.1
s(I194
I379
tp4416
F-0.1
s(I195
I379
tp4417
F0.0
s(I69
I200
tp4418
F0.3577972626148083
s(I197
I387
tp4419
F-0.1
s(I142
I203
tp4420
F-0.3518226452689615
s(I198
I282
tp4421
F0.0
s(I94
I192
tp4422
F-0.006490113768725308
s(I167
I193
tp4423
F0.658593341143683
s(I119
I200
tp4424
F-1.986238847003438
s(I197
I340
tp4425
F-0.1
s(I200
I391
tp4426
F-0.1
s(I195
I264
tp4427
F-0.1
s(I35
I201
tp4428
F0.13711816264045046
s(I199
I304
tp4429
F0.0
s(I201
I209
tp4430
F0.0
s(I129
I199
tp4431
F-0.13049605439224582
s(I203
I376
tp4432
F-0.1
s(I60
I199
tp4433
F-0.10284371972728726
s(I193
I290
tp4434
F0.0
s(I194
I391
tp4435
F0.0
s(I105
I192
tp4436
F-0.16661963749569836
s(I196
I348
tp4437
F0.0
s(I197
I362
tp4438
F0.0
s(I192
I223
tp4439
F0.0
s(I200
I300
tp4440
F-0.1
s(I196
I367
tp4441
F0.0
s(I38
I193
tp4442
F0.7920759872365088
s(I203
I382
tp4443
F-0.1
s(I62
I203
tp4444
F-0.04648678917574094
s(I200
I284
tp4445
F0.0
s(I200
I368
tp4446
F-0.1
s(I87
I193
tp4447
F0.0754371956618383
s(I108
I202
tp4448
F-0.027206585220064708
s(I0
I195
tp4449
F-0.9455573292992077
s(I1
I203
tp4450
F0.8877361968826615
s(I165
I194
tp4451
F-3.1059708051296573
s(I195
I314
tp4452
F0.0
s(I24
I201
tp4453
F-0.7448880303467135
s(I202
I271
tp4454
F0.0
s(I200
I375
tp4455
F-0.1
s(I200
I245
tp4456
F-0.1
s(I49
I199
tp4457
F-0.2867098351046908
s(I195
I352
tp4458
F0.0
s(I202
I391
tp4459
F-0.1
s(I192
I308
tp4460
F0.0
s(I143
I192
tp4461
F-0.1939345698848169
s(I192
I260
tp4462
F-0.1
s(I94
I203
tp4463
F0.025709717339567794
s(I200
I380
tp4464
F-0.1
s(I199
I354
tp4465
F0.0
s(I119
I193
tp4466
F0.9064961138825942
s(I196
I308
tp4467
F0.0
s(I199
I297
tp4468
F0.0
s(I201
I218
tp4469
F-0.1
s(I202
I357
tp4470
F0.0
s(I130
I198
tp4471
F-0.39860526621603204
s(I203
I387
tp4472
F-0.1
s(I81
I199
tp4473
F0.020728525266243712
s(I154
I192
tp4474
F0.17361182166008338
s(I193
I315
tp4475
F0.0
s(I85
I194
tp4476
F-0.20777746624242743
s(I105
I201
tp4477
F0.11776349464954723
s(I196
I347
tp4478
F-0.1
s(I14
I198
tp4479
F3.812171959625782
s(I200
I339
tp4480
F0.0
s(I39
I202
tp4481
F0.05686351306614298
s(I200
I212
tp4482
F0.0
s(I63
I192
tp4483
F0.011429042059286404
s(I200
I237
tp4484
F-0.1
s(I108
I193
tp4485
F0.009630349083236733
s(I201
I308
tp4486
F-0.1
s(I165
I203
tp4487
F-0.4377846678497843
s(I196
I289
tp4488
F-0.1
s(I25
I198
tp4489
F-0.37817317272499845
s(I202
I373
tp4490
F-0.1
s(I120
I196
tp4491
F-0.13585642037438594
s(I194
I333
tp4492
F-0.1
s(I50
I198
tp4493
F1.9347021789009153
s(I198
I269
tp4494
F-0.1
s(I143
I201
tp4495
F-0.6370550737625711
s(I128
I201
tp4496
F0.03530760441219996
s(I74
I192
tp4497
F-0.006484389241973217
s(I202
I285
tp4498
F-0.1
s(I3
I196
tp4499
F-0.12990827312783465
s(I193
I368
tp4500
F-0.1
s(I200
I262
tp4501
F-0.1
s(I197
I242
tp4502
F0.0
s(I192
I283
tp4503
F0.0
s(I28
I196
tp4504
F-0.02273483711772416
s(I176
I197
tp4505
F3.689247491366208
s(I177
I201
tp4506
F-0.7749972135857673
s(I196
I307
tp4507
F-0.1
s(I200
I214
tp4508
F0.0
s(I199
I294
tp4509
F-0.1
s(I202
I211
tp4510
F-0.1
s(I202
I364
tp4511
F0.0
s(I130
I193
tp4512
F-0.3214271835889016
s(I196
I270
tp4513
F0.0
s(I82
I198
tp4514
F0.12689970385724808
s(I154
I203
tp4515
F-0.6067010315050622
s(I155
I203
tp4516
F-0.6937122319606356
s(I193
I316
tp4517
F-0.1
s(I85
I203
tp4518
F-0.03504799318315269
s(I106
I192
tp4519
F0.04547352696914036
s(I14
I201
tp4520
F-1.049814721335402
s(I179
I193
tp4521
F-1.5599901673830352
s(I200
I346
tp4522
F0.0
s(I195
I387
tp4523
F-0.1
s(I39
I195
tp4524
F-0.1855298551309193
s(I193
I299
tp4525
F-0.1
s(I133
I197
tp4526
F-0.06875621745284251
s(I63
I201
tp4527
F-0.43414740453602063
s(I48
I201
tp4528
F-0.8645803288511257
s(I192
I235
tp4529
F-0.1
s(I109
I198
tp4530
F-0.5162187178254797
s(I1
I197
tp4531
F-0.4522426428659842
s(I96
I197
tp4532
F0.5348719203972185
s(I97
I201
tp4533
F0.23196741853579367
s(I26
I199
tp4534
F-1.315762336751888
s(I190
I196
tp4535
F-0.16663710667570358
s(I120
I203
tp4536
F-0.5927492296296665
s(I121
I195
tp4537
F-0.07756085204457216
s(I194
I324
tp4538
F-0.1
s(I50
I193
tp4539
F-0.4756304684239307
s(I198
I260
tp4540
F0.0
s(I128
I192
tp4541
F-0.006990920633202294
s(I74
I203
tp4542
F-0.6085845788068088
s(I75
I203
tp4543
F-0.26963043309718815
s(I4
I197
tp4544
F0.28959328231847997
s(I152
I198
tp4545
F-0.29708969522194734
s(I99
I193
tp4546
F0.041436394351962114
s(I192
I274
tp4547
F-0.1
s(I28
I195
tp4548
F0.25170156632396384
s(I29
I203
tp4549
F0.7766608777040289
s(I177
I194
tp4550
F-1.6626703766101643
s(I196
I314
tp4551
F0.0
s(I196
I247
tp4552
F-0.1
s(I53
I197
tp4553
F-0.8751319260017318
s(I198
I268
tp4554
F-0.1
s(I203
I216
tp4555
F-0.1
s(I203
I367
tp4556
F0.0
s(I82
I193
tp4557
F-0.4021223679655082
s(I7
I201
tp4558
F-0.11661124051963302
s(I155
I192
tp4559
F-0.0038400611445043083
s(I193
I309
tp4560
F0.0
s(I200
I382
tp4561
F-0.1
s(I106
I203
tp4562
F-0.423954869476831
s(I107
I203
tp4563
F-0.4510329423597755
s(I179
I198
tp4564
F-1.4138435122149318
s(I200
I321
tp4565
F0.0
s(I110
I196
tp4566
F-0.10272191735700179
s(I200
I304
tp4567
F0.0
s(I48
I192
tp4568
F0.21755547792645005
s(I194
I300
tp4569
F0.0
s(I72
I198
tp4570
F-0.9483869637915985
s(I201
I294
tp4571
F0.0
s(I2
I196
tp4572
F-0.08028347331476232
s(I97
I194
tp4573
F-1.1198492553620967
s(I197
I275
tp4574
F0.0
s(I192
I250
tp4575
F-0.1
s(I121
I196
tp4576
F-0.05640617307059618
s(I194
I351
tp4577
F0.0
s(I195
I343
tp4578
F-0.1
s(I198
I383
tp4579
F-0.1
s(I199
I391
tp4580
F0.0
s(I128
I199
tp4581
F-0.5046253201394144
s(I75
I192
tp4582
F0.04286339522673664
s(I153
I193
tp4583
F0.13673000515402628
s(I99
I198
tp4584
F0.20416675968113707
s(I192
I361
tp4585
F0.0
s(I200
I365
tp4586
F-0.1
s(I29
I196
tp4587
F-0.010066380929706893
s(I178
I203
tp4588
F-0.6929455351798302
s(I124
I198
tp4589
F0.19053025424719838
s(I203
I232
tp4590
F-0.1
s(I199
I276
tp4591
F-0.1
s(I201
I205
tp4592
F-1.3539992799748974
s(I203
I209
tp4593
F-0.1
s(I203
I356
tp4594
F-0.1
s(I131
I195
tp4595
F0.11505849196181145
s(I200
I257
tp4596
F0.0
s(I199
I328
tp4597
F-0.1
s(I7
I198
tp4598
F-0.37806910523092924
s(I156
I201
tp4599
F-0.5148146798856048
s(I195
I249
tp4600
F0.0
s(I107
I192
tp4601
F0.26979367770976787
s(I180
I199
tp4602
F0.15422845584278438
s(I198
I386
tp4603
F-0.1
s(I201
I350
tp4604
F-0.1
s(I19
I195
tp4605
F-0.31833657623511613
s(I200
I383
tp4606
F-0.1
s(I197
I286
tp4607
F-0.1
s(I48
I199
tp4608
F0.8320249043020751
s.